Archive member included to satisfy reference by file (symbol)

libapp.a(main.c.obj)          (--whole-archive)
zephyr/libzephyr.a(isr_tables.c.obj)
                              (--whole-archive)
zephyr/libzephyr.a(power.c.obj)
                              (--whole-archive)
zephyr/libzephyr.a(soc.c.obj)
                              (--whole-archive)
zephyr/libzephyr.a(mpu_regions.c.obj)
                              (--whole-archive)
zephyr/libzephyr.a(thread_entry.c.obj)
                              (--whole-archive)
zephyr/libzephyr.a(crc32_sw.c.obj)
                              (--whole-archive)
zephyr/libzephyr.a(crc16_sw.c.obj)
                              (--whole-archive)
zephyr/libzephyr.a(crc8_sw.c.obj)
                              (--whole-archive)
zephyr/libzephyr.a(mempool.c.obj)
                              (--whole-archive)
zephyr/libzephyr.a(rb.c.obj)  (--whole-archive)
zephyr/libzephyr.a(printk.c.obj)
                              (--whole-archive)
zephyr/libzephyr.a(configs.c.obj)
                              (--whole-archive)
zephyr/libzephyr.a(system_nrf52.c.obj)
                              (--whole-archive)
zephyr/libzephyr.a(nrfx_glue.c.obj)
                              (--whole-archive)
zephyr/libzephyr.a(SEGGER_RTT.c.obj)
                              (--whole-archive)
zephyr/libzephyr.a(rand32_entropy_device.c.obj)
                              (--whole-archive)
zephyr/libzephyr.a(rtt_console.c.obj)
                              (--whole-archive)
zephyr/libzephyr.a(nrf5_power_clock.c.obj)
                              (--whole-archive)
zephyr/libzephyr.a(sys_clock_init.c.obj)
                              (--whole-archive)
zephyr/libzephyr.a(nrf_rtc_timer.c.obj)
                              (--whole-archive)
zephyr/arch/arm/core/libarch__arm__core.a(exc_exit.S.obj)
                              (--whole-archive)
zephyr/arch/arm/core/libarch__arm__core.a(irq_init.c.obj)
                              (--whole-archive)
zephyr/arch/arm/core/libarch__arm__core.a(swap.c.obj)
                              (--whole-archive)
zephyr/arch/arm/core/libarch__arm__core.a(swap_helper.S.obj)
                              (--whole-archive)
zephyr/arch/arm/core/libarch__arm__core.a(fault.c.obj)
                              (--whole-archive)
zephyr/arch/arm/core/libarch__arm__core.a(irq_manage.c.obj)
                              (--whole-archive)
zephyr/arch/arm/core/libarch__arm__core.a(thread.c.obj)
                              (--whole-archive)
zephyr/arch/arm/core/libarch__arm__core.a(cpu_idle.S.obj)
                              (--whole-archive)
zephyr/arch/arm/core/libarch__arm__core.a(fault_s.S.obj)
                              (--whole-archive)
zephyr/arch/arm/core/libarch__arm__core.a(fatal.c.obj)
                              (--whole-archive)
zephyr/arch/arm/core/libarch__arm__core.a(sys_fatal_error_handler.c.obj)
                              (--whole-archive)
zephyr/arch/arm/core/libarch__arm__core.a(thread_abort.c.obj)
                              (--whole-archive)
zephyr/arch/arm/core/libarch__arm__core.a(isr_wrapper.S.obj)
                              (--whole-archive)
zephyr/arch/arm/core/cortex_m/libarch__arm__core__cortex_m.a(vector_table.S.obj)
                              (--whole-archive)
zephyr/arch/arm/core/cortex_m/libarch__arm__core__cortex_m.a(reset.S.obj)
                              (--whole-archive)
zephyr/arch/arm/core/cortex_m/libarch__arm__core__cortex_m.a(nmi_on_reset.S.obj)
                              (--whole-archive)
zephyr/arch/arm/core/cortex_m/libarch__arm__core__cortex_m.a(prep_c.c.obj)
                              (--whole-archive)
zephyr/arch/arm/core/cortex_m/libarch__arm__core__cortex_m.a(scb.c.obj)
                              (--whole-archive)
zephyr/arch/arm/core/cortex_m/libarch__arm__core__cortex_m.a(nmi.c.obj)
                              (--whole-archive)
zephyr/arch/arm/core/cortex_m/libarch__arm__core__cortex_m.a(exc_manage.c.obj)
                              (--whole-archive)
zephyr/arch/arm/core/cortex_m/mpu/libarch__arm__core__cortex_m__mpu.a(arm_core_mpu.c.obj)
                              (--whole-archive)
zephyr/arch/arm/core/cortex_m/mpu/libarch__arm__core__cortex_m__mpu.a(arm_mpu.c.obj)
                              (--whole-archive)
zephyr/lib/libc/minimal/liblib__libc__minimal.a(atoi.c.obj)
                              (--whole-archive)
zephyr/lib/libc/minimal/liblib__libc__minimal.a(strtol.c.obj)
                              (--whole-archive)
zephyr/lib/libc/minimal/liblib__libc__minimal.a(strtoul.c.obj)
                              (--whole-archive)
zephyr/lib/libc/minimal/liblib__libc__minimal.a(malloc.c.obj)
                              (--whole-archive)
zephyr/lib/libc/minimal/liblib__libc__minimal.a(strncasecmp.c.obj)
                              (--whole-archive)
zephyr/lib/libc/minimal/liblib__libc__minimal.a(strstr.c.obj)
                              (--whole-archive)
zephyr/lib/libc/minimal/liblib__libc__minimal.a(string.c.obj)
                              (--whole-archive)
zephyr/lib/libc/minimal/liblib__libc__minimal.a(prf.c.obj)
                              (--whole-archive)
zephyr/lib/libc/minimal/liblib__libc__minimal.a(stdout_console.c.obj)
                              (--whole-archive)
zephyr/lib/libc/minimal/liblib__libc__minimal.a(sprintf.c.obj)
                              (--whole-archive)
zephyr/lib/libc/minimal/liblib__libc__minimal.a(fprintf.c.obj)
                              (--whole-archive)
zephyr/subsys/bluetooth/common/libsubsys__bluetooth__common.a(dummy.c.obj)
                              (--whole-archive)
zephyr/subsys/bluetooth/host/libsubsys__bluetooth__host.a(uuid.c.obj)
                              (--whole-archive)
zephyr/subsys/bluetooth/host/libsubsys__bluetooth__host.a(hci_core.c.obj)
                              (--whole-archive)
zephyr/subsys/bluetooth/controller/libsubsys__bluetooth__controller.a(mem.c.obj)
                              (--whole-archive)
zephyr/subsys/bluetooth/controller/libsubsys__bluetooth__controller.a(memq.c.obj)
                              (--whole-archive)
zephyr/subsys/bluetooth/controller/libsubsys__bluetooth__controller.a(mayfly.c.obj)
                              (--whole-archive)
zephyr/subsys/bluetooth/controller/libsubsys__bluetooth__controller.a(util.c.obj)
                              (--whole-archive)
zephyr/subsys/bluetooth/controller/libsubsys__bluetooth__controller.a(ticker.c.obj)
                              (--whole-archive)
zephyr/subsys/bluetooth/controller/libsubsys__bluetooth__controller.a(ll_addr.c.obj)
                              (--whole-archive)
zephyr/subsys/bluetooth/controller/libsubsys__bluetooth__controller.a(ll_tx_pwr.c.obj)
                              (--whole-archive)
zephyr/subsys/bluetooth/controller/libsubsys__bluetooth__controller.a(ctrl.c.obj)
                              (--whole-archive)
zephyr/subsys/bluetooth/controller/libsubsys__bluetooth__controller.a(ll.c.obj)
                              (--whole-archive)
zephyr/subsys/bluetooth/controller/libsubsys__bluetooth__controller.a(hci_driver.c.obj)
                              (--whole-archive)
zephyr/subsys/bluetooth/controller/libsubsys__bluetooth__controller.a(hci.c.obj)
                              (--whole-archive)
zephyr/subsys/bluetooth/controller/libsubsys__bluetooth__controller.a(crypto.c.obj)
                              (--whole-archive)
zephyr/subsys/bluetooth/controller/libsubsys__bluetooth__controller.a(ll_adv.c.obj)
                              (--whole-archive)
zephyr/subsys/bluetooth/controller/libsubsys__bluetooth__controller.a(ll_filter.c.obj)
                              (--whole-archive)
zephyr/subsys/bluetooth/controller/libsubsys__bluetooth__controller.a(cntr.c.obj)
                              (--whole-archive)
zephyr/subsys/bluetooth/controller/libsubsys__bluetooth__controller.a(ecb.c.obj)
                              (--whole-archive)
zephyr/subsys/bluetooth/controller/libsubsys__bluetooth__controller.a(radio.c.obj)
                              (--whole-archive)
zephyr/subsys/bluetooth/controller/libsubsys__bluetooth__controller.a(mayfly.c.obj)
                              (--whole-archive)
zephyr/subsys/bluetooth/controller/libsubsys__bluetooth__controller.a(ticker.c.obj)
                              (--whole-archive)
zephyr/subsys/net/libsubsys__net.a(buf.c.obj)
                              (--whole-archive)
zephyr/drivers/gpio/libdrivers__gpio.a(gpio_nrf5.c.obj)
                              (--whole-archive)
zephyr/drivers/sensor/dht/libdrivers__sensor__dht.a(dht.c.obj)
                              (--whole-archive)
zephyr/drivers/entropy/libdrivers__entropy.a(entropy_nrf5.c.obj)
                              (--whole-archive)
zephyr/kernel/libkernel.a(device.c.obj)
                              libapp.a(main.c.obj) (device_get_binding)
zephyr/kernel/libkernel.a(errno.c.obj)
                              zephyr/lib/libc/minimal/liblib__libc__minimal.a(strtol.c.obj) (_impl_z_errno)
zephyr/kernel/libkernel.a(idle.c.obj)
                              zephyr/arch/arm/core/libarch__arm__core.a(irq_manage.c.obj) (_sys_power_save_idle_exit)
zephyr/kernel/libkernel.a(init.c.obj)
                              zephyr/arch/arm/core/cortex_m/libarch__arm__core__cortex_m.a(prep_c.c.obj) (_bss_zero)
zephyr/kernel/libkernel.a(mempool.c.obj)
                              zephyr/subsys/net/libsubsys__net.a(buf.c.obj) (k_mem_pool_alloc)
zephyr/kernel/libkernel.a(mutex.c.obj)
                              zephyr/libzephyr.a(mempool.c.obj) (_impl_k_mutex_lock)
zephyr/kernel/libkernel.a(queue.c.obj)
                              zephyr/subsys/bluetooth/host/libsubsys__bluetooth__host.a(hci_core.c.obj) (k_queue_append)
zephyr/kernel/libkernel.a(sched.c.obj)
                              zephyr/arch/arm/core/libarch__arm__core.a(exc_exit.S.obj) (_kernel)
zephyr/kernel/libkernel.a(sem.c.obj)
                              zephyr/subsys/bluetooth/host/libsubsys__bluetooth__host.a(hci_core.c.obj) (_impl_k_sem_init)
zephyr/kernel/libkernel.a(sys_clock.c.obj)
                              zephyr/libzephyr.a(nrf_rtc_timer.c.obj) (_sys_clock_tick_count)
zephyr/kernel/libkernel.a(system_work_q.c.obj)
                              zephyr/subsys/bluetooth/host/libsubsys__bluetooth__host.a(hci_core.c.obj) (k_sys_work_q)
zephyr/kernel/libkernel.a(thread.c.obj)
                              zephyr/libzephyr.a(rtt_console.c.obj) (k_is_in_isr)
zephyr/kernel/libkernel.a(work_q.c.obj)
                              zephyr/kernel/libkernel.a(system_work_q.c.obj) (k_work_q_start)
zephyr/kernel/libkernel.a(poll.c.obj)
                              zephyr/kernel/libkernel.a(queue.c.obj) (k_poll_event_init)
/home/mark/cs7ns2/gcc-arm-none-eabi/bin/../lib/gcc/arm-none-eabi/7.3.1/thumb/v7e-m/libgcc.a(_aeabi_ldivmod.o)
                              zephyr/subsys/bluetooth/controller/libsubsys__bluetooth__controller.a(ctrl.c.obj) (__aeabi_ldivmod)
/home/mark/cs7ns2/gcc-arm-none-eabi/bin/../lib/gcc/arm-none-eabi/7.3.1/thumb/v7e-m/libgcc.a(_aeabi_uldivmod.o)
                              zephyr/subsys/bluetooth/controller/libsubsys__bluetooth__controller.a(ctrl.c.obj) (__aeabi_uldivmod)
/home/mark/cs7ns2/gcc-arm-none-eabi/bin/../lib/gcc/arm-none-eabi/7.3.1/thumb/v7e-m/libgcc.a(_popcountsi2.o)
                              zephyr/drivers/gpio/libdrivers__gpio.a(gpio_nrf5.c.obj) (__popcountsi2)
/home/mark/cs7ns2/gcc-arm-none-eabi/bin/../lib/gcc/arm-none-eabi/7.3.1/thumb/v7e-m/libgcc.a(_udivmoddi4.o)
                              /home/mark/cs7ns2/gcc-arm-none-eabi/bin/../lib/gcc/arm-none-eabi/7.3.1/thumb/v7e-m/libgcc.a(_aeabi_ldivmod.o) (__udivmoddi4)
/home/mark/cs7ns2/gcc-arm-none-eabi/bin/../lib/gcc/arm-none-eabi/7.3.1/thumb/v7e-m/libgcc.a(_dvmd_tls.o)
                              /home/mark/cs7ns2/gcc-arm-none-eabi/bin/../lib/gcc/arm-none-eabi/7.3.1/thumb/v7e-m/libgcc.a(_aeabi_ldivmod.o) (__aeabi_ldiv0)

Allocating common symbols
Common symbol       size              file

_sys_pm_idle_exit_notify
                    0x1               zephyr/kernel/libkernel.a(idle.c.obj)
wl_anon             0x1               zephyr/subsys/bluetooth/controller/libsubsys__bluetooth__controller.a(ll_filter.c.obj)
_handling_timeouts  0x4               zephyr/kernel/libkernel.a(sys_clock.c.obj)
recv_thread_data    0x70              zephyr/subsys/bluetooth/controller/libsubsys__bluetooth__controller.a(hci_driver.c.obj)
_time_slice_elapsed
                    0x4               zephyr/kernel/libkernel.a(sys_clock.c.obj)
_kernel             0x2c              zephyr/kernel/libkernel.a(sched.c.obj)
_sys_clock_tick_count
                    0x8               zephyr/kernel/libkernel.a(sys_clock.c.obj)
k_sys_work_q        0x80              zephyr/kernel/libkernel.a(system_work_q.c.obj)
dht_data            0x8               zephyr/drivers/sensor/dht/libdrivers__sensor__dht.a(dht.c.obj)
_SEGGER_RTT         0xa8              zephyr/libzephyr.a(SEGGER_RTT.c.obj)
prio_recv_thread_data
                    0x70              zephyr/subsys/bluetooth/controller/libsubsys__bluetooth__controller.a(hci_driver.c.obj)

Discarded input sections

 .text          0x0000000000000000        0x0 zephyr/CMakeFiles/kernel_elf.dir/misc/empty_file.c.obj
 .data          0x0000000000000000        0x0 zephyr/CMakeFiles/kernel_elf.dir/misc/empty_file.c.obj
 .bss           0x0000000000000000        0x0 zephyr/CMakeFiles/kernel_elf.dir/misc/empty_file.c.obj
 .debug_line    0x0000000000000000        0x0 zephyr/CMakeFiles/kernel_elf.dir/misc/empty_file.c.obj
 .debug_str     0x0000000000000000      0x174 zephyr/CMakeFiles/kernel_elf.dir/misc/empty_file.c.obj
 .comment       0x0000000000000000       0x80 zephyr/CMakeFiles/kernel_elf.dir/misc/empty_file.c.obj
 .ARM.attributes
                0x0000000000000000       0x33 zephyr/CMakeFiles/kernel_elf.dir/misc/empty_file.c.obj
 .text          0x0000000000000000        0x0 zephyr/CMakeFiles/kernel_elf.dir/isr_tables.c.obj
 .data          0x0000000000000000        0x0 zephyr/CMakeFiles/kernel_elf.dir/isr_tables.c.obj
 .bss           0x0000000000000000        0x0 zephyr/CMakeFiles/kernel_elf.dir/isr_tables.c.obj
 .text          0x0000000000000000        0x0 libapp.a(main.c.obj)
 .data          0x0000000000000000        0x0 libapp.a(main.c.obj)
 .bss           0x0000000000000000        0x0 libapp.a(main.c.obj)
 .text          0x0000000000000000        0x0 zephyr/libzephyr.a(isr_tables.c.obj)
 .data          0x0000000000000000        0x0 zephyr/libzephyr.a(isr_tables.c.obj)
 .bss           0x0000000000000000        0x0 zephyr/libzephyr.a(isr_tables.c.obj)
 .text          0x0000000000000000        0x0 zephyr/libzephyr.a(power.c.obj)
 .data          0x0000000000000000        0x0 zephyr/libzephyr.a(power.c.obj)
 .bss           0x0000000000000000        0x0 zephyr/libzephyr.a(power.c.obj)
 .text._sys_soc_set_power_state
                0x0000000000000000       0x28 zephyr/libzephyr.a(power.c.obj)
 .text._sys_soc_power_state_post_ops
                0x0000000000000000        0xc zephyr/libzephyr.a(power.c.obj)
 .debug_info    0x0000000000000000      0xb5b zephyr/libzephyr.a(power.c.obj)
 .debug_abbrev  0x0000000000000000      0x2b6 zephyr/libzephyr.a(power.c.obj)
 .debug_loc     0x0000000000000000       0x69 zephyr/libzephyr.a(power.c.obj)
 .debug_aranges
                0x0000000000000000       0x28 zephyr/libzephyr.a(power.c.obj)
 .debug_ranges  0x0000000000000000       0x18 zephyr/libzephyr.a(power.c.obj)
 .debug_line    0x0000000000000000      0x338 zephyr/libzephyr.a(power.c.obj)
 .debug_str     0x0000000000000000      0x8ab zephyr/libzephyr.a(power.c.obj)
 .comment       0x0000000000000000       0x80 zephyr/libzephyr.a(power.c.obj)
 .debug_frame   0x0000000000000000       0x30 zephyr/libzephyr.a(power.c.obj)
 .ARM.attributes
                0x0000000000000000       0x33 zephyr/libzephyr.a(power.c.obj)
 .text          0x0000000000000000        0x0 zephyr/libzephyr.a(soc.c.obj)
 .data          0x0000000000000000        0x0 zephyr/libzephyr.a(soc.c.obj)
 .bss           0x0000000000000000        0x0 zephyr/libzephyr.a(soc.c.obj)
 .text          0x0000000000000000        0x0 zephyr/libzephyr.a(mpu_regions.c.obj)
 .data          0x0000000000000000        0x0 zephyr/libzephyr.a(mpu_regions.c.obj)
 .bss           0x0000000000000000        0x0 zephyr/libzephyr.a(mpu_regions.c.obj)
 .text          0x0000000000000000        0x0 zephyr/libzephyr.a(thread_entry.c.obj)
 .data          0x0000000000000000        0x0 zephyr/libzephyr.a(thread_entry.c.obj)
 .bss           0x0000000000000000        0x0 zephyr/libzephyr.a(thread_entry.c.obj)
 .text          0x0000000000000000        0x0 zephyr/libzephyr.a(crc32_sw.c.obj)
 .data          0x0000000000000000        0x0 zephyr/libzephyr.a(crc32_sw.c.obj)
 .bss           0x0000000000000000        0x0 zephyr/libzephyr.a(crc32_sw.c.obj)
 .text.crc32_ieee_update
                0x0000000000000000       0x30 zephyr/libzephyr.a(crc32_sw.c.obj)
 .text.crc32_ieee
                0x0000000000000000        0xa zephyr/libzephyr.a(crc32_sw.c.obj)
 .debug_info    0x0000000000000000      0x148 zephyr/libzephyr.a(crc32_sw.c.obj)
 .debug_abbrev  0x0000000000000000       0xcb zephyr/libzephyr.a(crc32_sw.c.obj)
 .debug_loc     0x0000000000000000      0x12b zephyr/libzephyr.a(crc32_sw.c.obj)
 .debug_aranges
                0x0000000000000000       0x28 zephyr/libzephyr.a(crc32_sw.c.obj)
 .debug_ranges  0x0000000000000000       0x50 zephyr/libzephyr.a(crc32_sw.c.obj)
 .debug_line    0x0000000000000000      0x113 zephyr/libzephyr.a(crc32_sw.c.obj)
 .debug_str     0x0000000000000000      0x212 zephyr/libzephyr.a(crc32_sw.c.obj)
 .comment       0x0000000000000000       0x80 zephyr/libzephyr.a(crc32_sw.c.obj)
 .debug_frame   0x0000000000000000       0x3c zephyr/libzephyr.a(crc32_sw.c.obj)
 .ARM.attributes
                0x0000000000000000       0x33 zephyr/libzephyr.a(crc32_sw.c.obj)
 .text          0x0000000000000000        0x0 zephyr/libzephyr.a(crc16_sw.c.obj)
 .data          0x0000000000000000        0x0 zephyr/libzephyr.a(crc16_sw.c.obj)
 .bss           0x0000000000000000        0x0 zephyr/libzephyr.a(crc16_sw.c.obj)
 .text.crc16    0x0000000000000000       0x58 zephyr/libzephyr.a(crc16_sw.c.obj)
 .text.crc16_ccitt
                0x0000000000000000       0x26 zephyr/libzephyr.a(crc16_sw.c.obj)
 .text.crc16_itu_t
                0x0000000000000000       0x2c zephyr/libzephyr.a(crc16_sw.c.obj)
 .debug_info    0x0000000000000000      0x1ef zephyr/libzephyr.a(crc16_sw.c.obj)
 .debug_abbrev  0x0000000000000000       0xdc zephyr/libzephyr.a(crc16_sw.c.obj)
 .debug_loc     0x0000000000000000      0x264 zephyr/libzephyr.a(crc16_sw.c.obj)
 .debug_aranges
                0x0000000000000000       0x30 zephyr/libzephyr.a(crc16_sw.c.obj)
 .debug_ranges  0x0000000000000000       0x40 zephyr/libzephyr.a(crc16_sw.c.obj)
 .debug_line    0x0000000000000000      0x15d zephyr/libzephyr.a(crc16_sw.c.obj)
 .debug_str     0x0000000000000000      0x241 zephyr/libzephyr.a(crc16_sw.c.obj)
 .comment       0x0000000000000000       0x80 zephyr/libzephyr.a(crc16_sw.c.obj)
 .debug_frame   0x0000000000000000       0x58 zephyr/libzephyr.a(crc16_sw.c.obj)
 .ARM.attributes
                0x0000000000000000       0x33 zephyr/libzephyr.a(crc16_sw.c.obj)
 .text          0x0000000000000000        0x0 zephyr/libzephyr.a(crc8_sw.c.obj)
 .data          0x0000000000000000        0x0 zephyr/libzephyr.a(crc8_sw.c.obj)
 .bss           0x0000000000000000        0x0 zephyr/libzephyr.a(crc8_sw.c.obj)
 .text.crc8_ccitt
                0x0000000000000000       0x2c zephyr/libzephyr.a(crc8_sw.c.obj)
 .rodata.crc8_ccitt_small_table
                0x0000000000000000       0x10 zephyr/libzephyr.a(crc8_sw.c.obj)
 .debug_info    0x0000000000000000      0x108 zephyr/libzephyr.a(crc8_sw.c.obj)
 .debug_abbrev  0x0000000000000000       0xa7 zephyr/libzephyr.a(crc8_sw.c.obj)
 .debug_loc     0x0000000000000000       0xd4 zephyr/libzephyr.a(crc8_sw.c.obj)
 .debug_aranges
                0x0000000000000000       0x20 zephyr/libzephyr.a(crc8_sw.c.obj)
 .debug_ranges  0x0000000000000000       0x10 zephyr/libzephyr.a(crc8_sw.c.obj)
 .debug_line    0x0000000000000000       0xf7 zephyr/libzephyr.a(crc8_sw.c.obj)
 .debug_str     0x0000000000000000      0x20b zephyr/libzephyr.a(crc8_sw.c.obj)
 .comment       0x0000000000000000       0x80 zephyr/libzephyr.a(crc8_sw.c.obj)
 .debug_frame   0x0000000000000000       0x28 zephyr/libzephyr.a(crc8_sw.c.obj)
 .ARM.attributes
                0x0000000000000000       0x33 zephyr/libzephyr.a(crc8_sw.c.obj)
 .text          0x0000000000000000        0x0 zephyr/libzephyr.a(mempool.c.obj)
 .data          0x0000000000000000        0x0 zephyr/libzephyr.a(mempool.c.obj)
 .bss           0x0000000000000000        0x0 zephyr/libzephyr.a(mempool.c.obj)
 .text.sys_mem_pool_alloc
                0x0000000000000000       0x52 zephyr/libzephyr.a(mempool.c.obj)
 .text.sys_mem_pool_free
                0x0000000000000000       0x34 zephyr/libzephyr.a(mempool.c.obj)
 .text          0x0000000000000000        0x0 zephyr/libzephyr.a(rb.c.obj)
 .data          0x0000000000000000        0x0 zephyr/libzephyr.a(rb.c.obj)
 .bss           0x0000000000000000        0x0 zephyr/libzephyr.a(rb.c.obj)
 .text.set_child
                0x0000000000000000       0x12 zephyr/libzephyr.a(rb.c.obj)
 .text.find_and_stack
                0x0000000000000000       0x38 zephyr/libzephyr.a(rb.c.obj)
 .text.rotate   0x0000000000000000       0x90 zephyr/libzephyr.a(rb.c.obj)
 .text.fix_missing_black
                0x0000000000000000      0x170 zephyr/libzephyr.a(rb.c.obj)
 .text.stack_left_limb
                0x0000000000000000       0x36 zephyr/libzephyr.a(rb.c.obj)
 .text._rb_get_minmax
                0x0000000000000000       0x18 zephyr/libzephyr.a(rb.c.obj)
 .text.rb_insert
                0x0000000000000000      0x136 zephyr/libzephyr.a(rb.c.obj)
 .text.rb_remove
                0x0000000000000000      0x1b8 zephyr/libzephyr.a(rb.c.obj)
 .text._rb_walk
                0x0000000000000000       0x24 zephyr/libzephyr.a(rb.c.obj)
 .text._rb_child
                0x0000000000000000        0xe zephyr/libzephyr.a(rb.c.obj)
 .text._rb_is_black
                0x0000000000000000        0x8 zephyr/libzephyr.a(rb.c.obj)
 .text.rb_contains
                0x0000000000000000       0x2c zephyr/libzephyr.a(rb.c.obj)
 .text._rb_foreach_next
                0x0000000000000000       0x58 zephyr/libzephyr.a(rb.c.obj)
 .debug_info    0x0000000000000000     0x1f46 zephyr/libzephyr.a(rb.c.obj)
 .debug_abbrev  0x0000000000000000      0x4d7 zephyr/libzephyr.a(rb.c.obj)
 .debug_loc     0x0000000000000000     0x14af zephyr/libzephyr.a(rb.c.obj)
 .debug_aranges
                0x0000000000000000       0x80 zephyr/libzephyr.a(rb.c.obj)
 .debug_ranges  0x0000000000000000      0x318 zephyr/libzephyr.a(rb.c.obj)
 .debug_line    0x0000000000000000      0x5dc zephyr/libzephyr.a(rb.c.obj)
 .debug_str     0x0000000000000000      0x71d zephyr/libzephyr.a(rb.c.obj)
 .comment       0x0000000000000000       0x80 zephyr/libzephyr.a(rb.c.obj)
 .debug_frame   0x0000000000000000      0x1bc zephyr/libzephyr.a(rb.c.obj)
 .ARM.attributes
                0x0000000000000000       0x33 zephyr/libzephyr.a(rb.c.obj)
 .text          0x0000000000000000        0x0 zephyr/libzephyr.a(printk.c.obj)
 .data          0x0000000000000000        0x0 zephyr/libzephyr.a(printk.c.obj)
 .bss           0x0000000000000000        0x0 zephyr/libzephyr.a(printk.c.obj)
 .text.__printk_get_hook
                0x0000000000000000        0xc zephyr/libzephyr.a(printk.c.obj)
 .text._impl_k_str_out
                0x0000000000000000       0x1c zephyr/libzephyr.a(printk.c.obj)
 .text.vsnprintk
                0x0000000000000000       0x28 zephyr/libzephyr.a(printk.c.obj)
 .text          0x0000000000000000        0x0 zephyr/libzephyr.a(configs.c.obj)
 .data          0x0000000000000000        0x0 zephyr/libzephyr.a(configs.c.obj)
 .bss           0x0000000000000000        0x0 zephyr/libzephyr.a(configs.c.obj)
 .text          0x0000000000000000        0x0 zephyr/libzephyr.a(system_nrf52.c.obj)
 .data          0x0000000000000000        0x0 zephyr/libzephyr.a(system_nrf52.c.obj)
 .bss           0x0000000000000000        0x0 zephyr/libzephyr.a(system_nrf52.c.obj)
 .text.SystemCoreClockUpdate
                0x0000000000000000       0x10 zephyr/libzephyr.a(system_nrf52.c.obj)
 .text          0x0000000000000000        0x0 zephyr/libzephyr.a(nrfx_glue.c.obj)
 .data          0x0000000000000000        0x0 zephyr/libzephyr.a(nrfx_glue.c.obj)
 .bss           0x0000000000000000        0x0 zephyr/libzephyr.a(nrfx_glue.c.obj)
 .text.nrfx_isr
                0x0000000000000000        0x2 zephyr/libzephyr.a(nrfx_glue.c.obj)
 .debug_info    0x0000000000000000      0x68e zephyr/libzephyr.a(nrfx_glue.c.obj)
 .debug_abbrev  0x0000000000000000      0x197 zephyr/libzephyr.a(nrfx_glue.c.obj)
 .debug_loc     0x0000000000000000       0x21 zephyr/libzephyr.a(nrfx_glue.c.obj)
 .debug_aranges
                0x0000000000000000       0x20 zephyr/libzephyr.a(nrfx_glue.c.obj)
 .debug_ranges  0x0000000000000000       0x10 zephyr/libzephyr.a(nrfx_glue.c.obj)
 .debug_line    0x0000000000000000      0x2d6 zephyr/libzephyr.a(nrfx_glue.c.obj)
 .debug_str     0x0000000000000000      0x594 zephyr/libzephyr.a(nrfx_glue.c.obj)
 .comment       0x0000000000000000       0x80 zephyr/libzephyr.a(nrfx_glue.c.obj)
 .debug_frame   0x0000000000000000       0x20 zephyr/libzephyr.a(nrfx_glue.c.obj)
 .ARM.attributes
                0x0000000000000000       0x33 zephyr/libzephyr.a(nrfx_glue.c.obj)
 .text          0x0000000000000000        0x0 zephyr/libzephyr.a(SEGGER_RTT.c.obj)
 .data          0x0000000000000000        0x0 zephyr/libzephyr.a(SEGGER_RTT.c.obj)
 .bss           0x0000000000000000        0x0 zephyr/libzephyr.a(SEGGER_RTT.c.obj)
 .text._PostTerminalSwitch.constprop.0
                0x0000000000000000       0x28 zephyr/libzephyr.a(SEGGER_RTT.c.obj)
 .text.SEGGER_RTT_ReadNoLock
                0x0000000000000000       0x88 zephyr/libzephyr.a(SEGGER_RTT.c.obj)
 .text.SEGGER_RTT_Read
                0x0000000000000000       0x1c zephyr/libzephyr.a(SEGGER_RTT.c.obj)
 .text.SEGGER_RTT_WriteWithOverwriteNoLock
                0x0000000000000000       0xb8 zephyr/libzephyr.a(SEGGER_RTT.c.obj)
 .text.SEGGER_RTT_WriteSkipNoLock
                0x0000000000000000       0x90 zephyr/libzephyr.a(SEGGER_RTT.c.obj)
 .text.SEGGER_RTT_Write
                0x0000000000000000       0x34 zephyr/libzephyr.a(SEGGER_RTT.c.obj)
 .text.SEGGER_RTT_WriteString
                0x0000000000000000       0x1a zephyr/libzephyr.a(SEGGER_RTT.c.obj)
 .text.SEGGER_RTT_PutCharSkipNoLock
                0x0000000000000000       0x34 zephyr/libzephyr.a(SEGGER_RTT.c.obj)
 .text.SEGGER_RTT_PutCharSkip
                0x0000000000000000       0x50 zephyr/libzephyr.a(SEGGER_RTT.c.obj)
 .text.SEGGER_RTT_PutChar
                0x0000000000000000       0x64 zephyr/libzephyr.a(SEGGER_RTT.c.obj)
 .text.SEGGER_RTT_GetKey
                0x0000000000000000       0x20 zephyr/libzephyr.a(SEGGER_RTT.c.obj)
 .text.SEGGER_RTT_WaitKey
                0x0000000000000000        0xc zephyr/libzephyr.a(SEGGER_RTT.c.obj)
 .text.SEGGER_RTT_HasKey
                0x0000000000000000       0x1c zephyr/libzephyr.a(SEGGER_RTT.c.obj)
 .text.SEGGER_RTT_HasData
                0x0000000000000000       0x14 zephyr/libzephyr.a(SEGGER_RTT.c.obj)
 .text.SEGGER_RTT_HasDataUp
                0x0000000000000000       0x14 zephyr/libzephyr.a(SEGGER_RTT.c.obj)
 .text.SEGGER_RTT_AllocDownBuffer
                0x0000000000000000       0x5c zephyr/libzephyr.a(SEGGER_RTT.c.obj)
 .text.SEGGER_RTT_AllocUpBuffer
                0x0000000000000000       0x68 zephyr/libzephyr.a(SEGGER_RTT.c.obj)
 .text.SEGGER_RTT_ConfigUpBuffer
                0x0000000000000000       0x68 zephyr/libzephyr.a(SEGGER_RTT.c.obj)
 .text.SEGGER_RTT_ConfigDownBuffer
                0x0000000000000000       0x5c zephyr/libzephyr.a(SEGGER_RTT.c.obj)
 .text.SEGGER_RTT_SetNameUpBuffer
                0x0000000000000000       0x3c zephyr/libzephyr.a(SEGGER_RTT.c.obj)
 .text.SEGGER_RTT_SetNameDownBuffer
                0x0000000000000000       0x3c zephyr/libzephyr.a(SEGGER_RTT.c.obj)
 .text.SEGGER_RTT_SetFlagsUpBuffer
                0x0000000000000000       0x3c zephyr/libzephyr.a(SEGGER_RTT.c.obj)
 .text.SEGGER_RTT_SetFlagsDownBuffer
                0x0000000000000000       0x3c zephyr/libzephyr.a(SEGGER_RTT.c.obj)
 .text.SEGGER_RTT_SetTerminal
                0x0000000000000000       0x84 zephyr/libzephyr.a(SEGGER_RTT.c.obj)
 .text.SEGGER_RTT_TerminalOut
                0x0000000000000000       0xa0 zephyr/libzephyr.a(SEGGER_RTT.c.obj)
 .bss._ActiveTerminal
                0x0000000000000000        0x1 zephyr/libzephyr.a(SEGGER_RTT.c.obj)
 .rodata._aTerminalId
                0x0000000000000000       0x10 zephyr/libzephyr.a(SEGGER_RTT.c.obj)
 .text          0x0000000000000000        0x0 zephyr/libzephyr.a(rand32_entropy_device.c.obj)
 .data          0x0000000000000000        0x0 zephyr/libzephyr.a(rand32_entropy_device.c.obj)
 .bss           0x0000000000000000        0x0 zephyr/libzephyr.a(rand32_entropy_device.c.obj)
 .text          0x0000000000000000        0x0 zephyr/libzephyr.a(rtt_console.c.obj)
 .data          0x0000000000000000        0x0 zephyr/libzephyr.a(rtt_console.c.obj)
 .bss           0x0000000000000000        0x0 zephyr/libzephyr.a(rtt_console.c.obj)
 .text          0x0000000000000000        0x0 zephyr/libzephyr.a(nrf5_power_clock.c.obj)
 .data          0x0000000000000000        0x0 zephyr/libzephyr.a(nrf5_power_clock.c.obj)
 .bss           0x0000000000000000        0x0 zephyr/libzephyr.a(nrf5_power_clock.c.obj)
 .text          0x0000000000000000        0x0 zephyr/libzephyr.a(sys_clock_init.c.obj)
 .data          0x0000000000000000        0x0 zephyr/libzephyr.a(sys_clock_init.c.obj)
 .bss           0x0000000000000000        0x0 zephyr/libzephyr.a(sys_clock_init.c.obj)
 .text          0x0000000000000000        0x0 zephyr/libzephyr.a(nrf_rtc_timer.c.obj)
 .data          0x0000000000000000        0x0 zephyr/libzephyr.a(nrf_rtc_timer.c.obj)
 .bss           0x0000000000000000        0x0 zephyr/libzephyr.a(nrf_rtc_timer.c.obj)
 .text          0x0000000000000000        0x0 zephyr/arch/arm/core/libarch__arm__core.a(exc_exit.S.obj)
 .data          0x0000000000000000        0x0 zephyr/arch/arm/core/libarch__arm__core.a(exc_exit.S.obj)
 .bss           0x0000000000000000        0x0 zephyr/arch/arm/core/libarch__arm__core.a(exc_exit.S.obj)
 .text          0x0000000000000000        0x0 zephyr/arch/arm/core/libarch__arm__core.a(irq_init.c.obj)
 .data          0x0000000000000000        0x0 zephyr/arch/arm/core/libarch__arm__core.a(irq_init.c.obj)
 .bss           0x0000000000000000        0x0 zephyr/arch/arm/core/libarch__arm__core.a(irq_init.c.obj)
 .text          0x0000000000000000        0x0 zephyr/arch/arm/core/libarch__arm__core.a(swap.c.obj)
 .data          0x0000000000000000        0x0 zephyr/arch/arm/core/libarch__arm__core.a(swap.c.obj)
 .bss           0x0000000000000000        0x0 zephyr/arch/arm/core/libarch__arm__core.a(swap.c.obj)
 .text          0x0000000000000000        0x0 zephyr/arch/arm/core/libarch__arm__core.a(swap_helper.S.obj)
 .data          0x0000000000000000        0x0 zephyr/arch/arm/core/libarch__arm__core.a(swap_helper.S.obj)
 .bss           0x0000000000000000        0x0 zephyr/arch/arm/core/libarch__arm__core.a(swap_helper.S.obj)
 .text          0x0000000000000000        0x0 zephyr/arch/arm/core/libarch__arm__core.a(fault.c.obj)
 .data          0x0000000000000000        0x0 zephyr/arch/arm/core/libarch__arm__core.a(fault.c.obj)
 .bss           0x0000000000000000        0x0 zephyr/arch/arm/core/libarch__arm__core.a(fault.c.obj)
 .text          0x0000000000000000        0x0 zephyr/arch/arm/core/libarch__arm__core.a(irq_manage.c.obj)
 .data          0x0000000000000000        0x0 zephyr/arch/arm/core/libarch__arm__core.a(irq_manage.c.obj)
 .bss           0x0000000000000000        0x0 zephyr/arch/arm/core/libarch__arm__core.a(irq_manage.c.obj)
 .text          0x0000000000000000        0x0 zephyr/arch/arm/core/libarch__arm__core.a(thread.c.obj)
 .data          0x0000000000000000        0x0 zephyr/arch/arm/core/libarch__arm__core.a(thread.c.obj)
 .bss           0x0000000000000000        0x0 zephyr/arch/arm/core/libarch__arm__core.a(thread.c.obj)
 .text          0x0000000000000000        0x0 zephyr/arch/arm/core/libarch__arm__core.a(cpu_idle.S.obj)
 .data          0x0000000000000000        0x0 zephyr/arch/arm/core/libarch__arm__core.a(cpu_idle.S.obj)
 .bss           0x0000000000000000        0x0 zephyr/arch/arm/core/libarch__arm__core.a(cpu_idle.S.obj)
 .text._NanoIdleValGet
                0x0000000000000000        0xc zephyr/arch/arm/core/libarch__arm__core.a(cpu_idle.S.obj)
 .text._NanoIdleValClear
                0x0000000000000000        0xc zephyr/arch/arm/core/libarch__arm__core.a(cpu_idle.S.obj)
 .text.k_cpu_atomic_idle
                0x0000000000000000       0x14 zephyr/arch/arm/core/libarch__arm__core.a(cpu_idle.S.obj)
 .text          0x0000000000000000        0x0 zephyr/arch/arm/core/libarch__arm__core.a(fault_s.S.obj)
 .data          0x0000000000000000        0x0 zephyr/arch/arm/core/libarch__arm__core.a(fault_s.S.obj)
 .bss           0x0000000000000000        0x0 zephyr/arch/arm/core/libarch__arm__core.a(fault_s.S.obj)
 .text          0x0000000000000000        0x0 zephyr/arch/arm/core/libarch__arm__core.a(fatal.c.obj)
 .data          0x0000000000000000        0x0 zephyr/arch/arm/core/libarch__arm__core.a(fatal.c.obj)
 .bss           0x0000000000000000        0x0 zephyr/arch/arm/core/libarch__arm__core.a(fatal.c.obj)
 .text._arch_syscall_oops
                0x0000000000000000       0x1a zephyr/arch/arm/core/libarch__arm__core.a(fatal.c.obj)
 .text          0x0000000000000000        0x0 zephyr/arch/arm/core/libarch__arm__core.a(sys_fatal_error_handler.c.obj)
 .data          0x0000000000000000        0x0 zephyr/arch/arm/core/libarch__arm__core.a(sys_fatal_error_handler.c.obj)
 .bss           0x0000000000000000        0x0 zephyr/arch/arm/core/libarch__arm__core.a(sys_fatal_error_handler.c.obj)
 .text          0x0000000000000000        0x0 zephyr/arch/arm/core/libarch__arm__core.a(thread_abort.c.obj)
 .data          0x0000000000000000        0x0 zephyr/arch/arm/core/libarch__arm__core.a(thread_abort.c.obj)
 .bss           0x0000000000000000        0x0 zephyr/arch/arm/core/libarch__arm__core.a(thread_abort.c.obj)
 .text          0x0000000000000000        0x0 zephyr/arch/arm/core/libarch__arm__core.a(isr_wrapper.S.obj)
 .data          0x0000000000000000        0x0 zephyr/arch/arm/core/libarch__arm__core.a(isr_wrapper.S.obj)
 .bss           0x0000000000000000        0x0 zephyr/arch/arm/core/libarch__arm__core.a(isr_wrapper.S.obj)
 .text          0x0000000000000000        0x0 zephyr/arch/arm/core/cortex_m/libarch__arm__core__cortex_m.a(vector_table.S.obj)
 .data          0x0000000000000000        0x0 zephyr/arch/arm/core/cortex_m/libarch__arm__core__cortex_m.a(vector_table.S.obj)
 .bss           0x0000000000000000        0x0 zephyr/arch/arm/core/cortex_m/libarch__arm__core__cortex_m.a(vector_table.S.obj)
 .text          0x0000000000000000        0x0 zephyr/arch/arm/core/cortex_m/libarch__arm__core__cortex_m.a(reset.S.obj)
 .data          0x0000000000000000        0x0 zephyr/arch/arm/core/cortex_m/libarch__arm__core__cortex_m.a(reset.S.obj)
 .bss           0x0000000000000000        0x0 zephyr/arch/arm/core/cortex_m/libarch__arm__core__cortex_m.a(reset.S.obj)
 .text          0x0000000000000000        0x0 zephyr/arch/arm/core/cortex_m/libarch__arm__core__cortex_m.a(nmi_on_reset.S.obj)
 .data          0x0000000000000000        0x0 zephyr/arch/arm/core/cortex_m/libarch__arm__core__cortex_m.a(nmi_on_reset.S.obj)
 .bss           0x0000000000000000        0x0 zephyr/arch/arm/core/cortex_m/libarch__arm__core__cortex_m.a(nmi_on_reset.S.obj)
 .text          0x0000000000000000        0x0 zephyr/arch/arm/core/cortex_m/libarch__arm__core__cortex_m.a(prep_c.c.obj)
 .data          0x0000000000000000        0x0 zephyr/arch/arm/core/cortex_m/libarch__arm__core__cortex_m.a(prep_c.c.obj)
 .bss           0x0000000000000000        0x0 zephyr/arch/arm/core/cortex_m/libarch__arm__core__cortex_m.a(prep_c.c.obj)
 .text          0x0000000000000000        0x0 zephyr/arch/arm/core/cortex_m/libarch__arm__core__cortex_m.a(scb.c.obj)
 .data          0x0000000000000000        0x0 zephyr/arch/arm/core/cortex_m/libarch__arm__core__cortex_m.a(scb.c.obj)
 .bss           0x0000000000000000        0x0 zephyr/arch/arm/core/cortex_m/libarch__arm__core__cortex_m.a(scb.c.obj)
 .text.sys_arch_reboot
                0x0000000000000000       0x24 zephyr/arch/arm/core/cortex_m/libarch__arm__core__cortex_m.a(scb.c.obj)
 .debug_info    0x0000000000000000      0x872 zephyr/arch/arm/core/cortex_m/libarch__arm__core__cortex_m.a(scb.c.obj)
 .debug_abbrev  0x0000000000000000      0x1cd zephyr/arch/arm/core/cortex_m/libarch__arm__core__cortex_m.a(scb.c.obj)
 .debug_aranges
                0x0000000000000000       0x20 zephyr/arch/arm/core/cortex_m/libarch__arm__core__cortex_m.a(scb.c.obj)
 .debug_ranges  0x0000000000000000       0x10 zephyr/arch/arm/core/cortex_m/libarch__arm__core__cortex_m.a(scb.c.obj)
 .debug_line    0x0000000000000000      0x2b9 zephyr/arch/arm/core/cortex_m/libarch__arm__core__cortex_m.a(scb.c.obj)
 .debug_str     0x0000000000000000      0x602 zephyr/arch/arm/core/cortex_m/libarch__arm__core__cortex_m.a(scb.c.obj)
 .comment       0x0000000000000000       0x80 zephyr/arch/arm/core/cortex_m/libarch__arm__core__cortex_m.a(scb.c.obj)
 .debug_frame   0x0000000000000000       0x20 zephyr/arch/arm/core/cortex_m/libarch__arm__core__cortex_m.a(scb.c.obj)
 .ARM.attributes
                0x0000000000000000       0x33 zephyr/arch/arm/core/cortex_m/libarch__arm__core__cortex_m.a(scb.c.obj)
 .text          0x0000000000000000        0x0 zephyr/arch/arm/core/cortex_m/libarch__arm__core__cortex_m.a(nmi.c.obj)
 .data          0x0000000000000000        0x0 zephyr/arch/arm/core/cortex_m/libarch__arm__core__cortex_m.a(nmi.c.obj)
 .bss           0x0000000000000000        0x0 zephyr/arch/arm/core/cortex_m/libarch__arm__core__cortex_m.a(nmi.c.obj)
 .text          0x0000000000000000        0x0 zephyr/arch/arm/core/cortex_m/libarch__arm__core__cortex_m.a(exc_manage.c.obj)
 .data          0x0000000000000000        0x0 zephyr/arch/arm/core/cortex_m/libarch__arm__core__cortex_m.a(exc_manage.c.obj)
 .bss           0x0000000000000000        0x0 zephyr/arch/arm/core/cortex_m/libarch__arm__core__cortex_m.a(exc_manage.c.obj)
 .text.sys_exc_esf_dump
                0x0000000000000000       0x68 zephyr/arch/arm/core/cortex_m/libarch__arm__core__cortex_m.a(exc_manage.c.obj)
 .rodata.sys_exc_esf_dump.str1.1
                0x0000000000000000       0x65 zephyr/arch/arm/core/cortex_m/libarch__arm__core__cortex_m.a(exc_manage.c.obj)
 .debug_info    0x0000000000000000      0x82d zephyr/arch/arm/core/cortex_m/libarch__arm__core__cortex_m.a(exc_manage.c.obj)
 .debug_abbrev  0x0000000000000000      0x1cf zephyr/arch/arm/core/cortex_m/libarch__arm__core__cortex_m.a(exc_manage.c.obj)
 .debug_loc     0x0000000000000000       0x2c zephyr/arch/arm/core/cortex_m/libarch__arm__core__cortex_m.a(exc_manage.c.obj)
 .debug_aranges
                0x0000000000000000       0x20 zephyr/arch/arm/core/cortex_m/libarch__arm__core__cortex_m.a(exc_manage.c.obj)
 .debug_ranges  0x0000000000000000       0x10 zephyr/arch/arm/core/cortex_m/libarch__arm__core__cortex_m.a(exc_manage.c.obj)
 .debug_line    0x0000000000000000      0x231 zephyr/arch/arm/core/cortex_m/libarch__arm__core__cortex_m.a(exc_manage.c.obj)
 .debug_str     0x0000000000000000      0x573 zephyr/arch/arm/core/cortex_m/libarch__arm__core__cortex_m.a(exc_manage.c.obj)
 .comment       0x0000000000000000       0x80 zephyr/arch/arm/core/cortex_m/libarch__arm__core__cortex_m.a(exc_manage.c.obj)
 .debug_frame   0x0000000000000000       0x2c zephyr/arch/arm/core/cortex_m/libarch__arm__core__cortex_m.a(exc_manage.c.obj)
 .ARM.attributes
                0x0000000000000000       0x33 zephyr/arch/arm/core/cortex_m/libarch__arm__core__cortex_m.a(exc_manage.c.obj)
 .text          0x0000000000000000        0x0 zephyr/arch/arm/core/cortex_m/mpu/libarch__arm__core__cortex_m__mpu.a(arm_core_mpu.c.obj)
 .data          0x0000000000000000        0x0 zephyr/arch/arm/core/cortex_m/mpu/libarch__arm__core__cortex_m__mpu.a(arm_core_mpu.c.obj)
 .bss           0x0000000000000000        0x0 zephyr/arch/arm/core/cortex_m/mpu/libarch__arm__core__cortex_m__mpu.a(arm_core_mpu.c.obj)
 .debug_info    0x0000000000000000      0x84f zephyr/arch/arm/core/cortex_m/mpu/libarch__arm__core__cortex_m__mpu.a(arm_core_mpu.c.obj)
 .debug_abbrev  0x0000000000000000      0x190 zephyr/arch/arm/core/cortex_m/mpu/libarch__arm__core__cortex_m__mpu.a(arm_core_mpu.c.obj)
 .debug_aranges
                0x0000000000000000       0x18 zephyr/arch/arm/core/cortex_m/mpu/libarch__arm__core__cortex_m__mpu.a(arm_core_mpu.c.obj)
 .debug_line    0x0000000000000000      0x33a zephyr/arch/arm/core/cortex_m/mpu/libarch__arm__core__cortex_m__mpu.a(arm_core_mpu.c.obj)
 .debug_str     0x0000000000000000      0x6c5 zephyr/arch/arm/core/cortex_m/mpu/libarch__arm__core__cortex_m__mpu.a(arm_core_mpu.c.obj)
 .comment       0x0000000000000000       0x80 zephyr/arch/arm/core/cortex_m/mpu/libarch__arm__core__cortex_m__mpu.a(arm_core_mpu.c.obj)
 .ARM.attributes
                0x0000000000000000       0x33 zephyr/arch/arm/core/cortex_m/mpu/libarch__arm__core__cortex_m__mpu.a(arm_core_mpu.c.obj)
 .text          0x0000000000000000        0x0 zephyr/arch/arm/core/cortex_m/mpu/libarch__arm__core__cortex_m__mpu.a(arm_mpu.c.obj)
 .data          0x0000000000000000        0x0 zephyr/arch/arm/core/cortex_m/mpu/libarch__arm__core__cortex_m__mpu.a(arm_mpu.c.obj)
 .bss           0x0000000000000000        0x0 zephyr/arch/arm/core/cortex_m/mpu/libarch__arm__core__cortex_m__mpu.a(arm_mpu.c.obj)
 .text.arm_core_mpu_disable
                0x0000000000000000        0xc zephyr/arch/arm/core/cortex_m/mpu/libarch__arm__core__cortex_m__mpu.a(arm_mpu.c.obj)
 .text          0x0000000000000000        0x0 zephyr/lib/libc/minimal/liblib__libc__minimal.a(atoi.c.obj)
 .data          0x0000000000000000        0x0 zephyr/lib/libc/minimal/liblib__libc__minimal.a(atoi.c.obj)
 .bss           0x0000000000000000        0x0 zephyr/lib/libc/minimal/liblib__libc__minimal.a(atoi.c.obj)
 .text.atoi     0x0000000000000000       0x46 zephyr/lib/libc/minimal/liblib__libc__minimal.a(atoi.c.obj)
 .debug_info    0x0000000000000000       0xe9 zephyr/lib/libc/minimal/liblib__libc__minimal.a(atoi.c.obj)
 .debug_abbrev  0x0000000000000000       0xe4 zephyr/lib/libc/minimal/liblib__libc__minimal.a(atoi.c.obj)
 .debug_loc     0x0000000000000000       0x8f zephyr/lib/libc/minimal/liblib__libc__minimal.a(atoi.c.obj)
 .debug_aranges
                0x0000000000000000       0x20 zephyr/lib/libc/minimal/liblib__libc__minimal.a(atoi.c.obj)
 .debug_ranges  0x0000000000000000       0x10 zephyr/lib/libc/minimal/liblib__libc__minimal.a(atoi.c.obj)
 .debug_line    0x0000000000000000       0xd1 zephyr/lib/libc/minimal/liblib__libc__minimal.a(atoi.c.obj)
 .debug_str     0x0000000000000000      0x1af zephyr/lib/libc/minimal/liblib__libc__minimal.a(atoi.c.obj)
 .comment       0x0000000000000000       0x80 zephyr/lib/libc/minimal/liblib__libc__minimal.a(atoi.c.obj)
 .debug_frame   0x0000000000000000       0x28 zephyr/lib/libc/minimal/liblib__libc__minimal.a(atoi.c.obj)
 .ARM.attributes
                0x0000000000000000       0x33 zephyr/lib/libc/minimal/liblib__libc__minimal.a(atoi.c.obj)
 .text          0x0000000000000000        0x0 zephyr/lib/libc/minimal/liblib__libc__minimal.a(strtol.c.obj)
 .data          0x0000000000000000        0x0 zephyr/lib/libc/minimal/liblib__libc__minimal.a(strtol.c.obj)
 .bss           0x0000000000000000        0x0 zephyr/lib/libc/minimal/liblib__libc__minimal.a(strtol.c.obj)
 .text.strtol   0x0000000000000000       0xec zephyr/lib/libc/minimal/liblib__libc__minimal.a(strtol.c.obj)
 .debug_info    0x0000000000000000      0x23c zephyr/lib/libc/minimal/liblib__libc__minimal.a(strtol.c.obj)
 .debug_abbrev  0x0000000000000000      0x100 zephyr/lib/libc/minimal/liblib__libc__minimal.a(strtol.c.obj)
 .debug_loc     0x0000000000000000      0x30e zephyr/lib/libc/minimal/liblib__libc__minimal.a(strtol.c.obj)
 .debug_aranges
                0x0000000000000000       0x20 zephyr/lib/libc/minimal/liblib__libc__minimal.a(strtol.c.obj)
 .debug_ranges  0x0000000000000000       0x10 zephyr/lib/libc/minimal/liblib__libc__minimal.a(strtol.c.obj)
 .debug_line    0x0000000000000000      0x199 zephyr/lib/libc/minimal/liblib__libc__minimal.a(strtol.c.obj)
 .debug_str     0x0000000000000000      0x26f zephyr/lib/libc/minimal/liblib__libc__minimal.a(strtol.c.obj)
 .comment       0x0000000000000000       0x80 zephyr/lib/libc/minimal/liblib__libc__minimal.a(strtol.c.obj)
 .debug_frame   0x0000000000000000       0x34 zephyr/lib/libc/minimal/liblib__libc__minimal.a(strtol.c.obj)
 .ARM.attributes
                0x0000000000000000       0x33 zephyr/lib/libc/minimal/liblib__libc__minimal.a(strtol.c.obj)
 .text          0x0000000000000000        0x0 zephyr/lib/libc/minimal/liblib__libc__minimal.a(strtoul.c.obj)
 .data          0x0000000000000000        0x0 zephyr/lib/libc/minimal/liblib__libc__minimal.a(strtoul.c.obj)
 .bss           0x0000000000000000        0x0 zephyr/lib/libc/minimal/liblib__libc__minimal.a(strtoul.c.obj)
 .text.strtoul  0x0000000000000000       0xf2 zephyr/lib/libc/minimal/liblib__libc__minimal.a(strtoul.c.obj)
 .debug_info    0x0000000000000000      0x235 zephyr/lib/libc/minimal/liblib__libc__minimal.a(strtoul.c.obj)
 .debug_abbrev  0x0000000000000000      0x100 zephyr/lib/libc/minimal/liblib__libc__minimal.a(strtoul.c.obj)
 .debug_loc     0x0000000000000000      0x31b zephyr/lib/libc/minimal/liblib__libc__minimal.a(strtoul.c.obj)
 .debug_aranges
                0x0000000000000000       0x20 zephyr/lib/libc/minimal/liblib__libc__minimal.a(strtoul.c.obj)
 .debug_ranges  0x0000000000000000       0x10 zephyr/lib/libc/minimal/liblib__libc__minimal.a(strtoul.c.obj)
 .debug_line    0x0000000000000000      0x185 zephyr/lib/libc/minimal/liblib__libc__minimal.a(strtoul.c.obj)
 .debug_str     0x0000000000000000      0x268 zephyr/lib/libc/minimal/liblib__libc__minimal.a(strtoul.c.obj)
 .comment       0x0000000000000000       0x80 zephyr/lib/libc/minimal/liblib__libc__minimal.a(strtoul.c.obj)
 .debug_frame   0x0000000000000000       0x30 zephyr/lib/libc/minimal/liblib__libc__minimal.a(strtoul.c.obj)
 .ARM.attributes
                0x0000000000000000       0x33 zephyr/lib/libc/minimal/liblib__libc__minimal.a(strtoul.c.obj)
 .text          0x0000000000000000        0x0 zephyr/lib/libc/minimal/liblib__libc__minimal.a(malloc.c.obj)
 .data          0x0000000000000000        0x0 zephyr/lib/libc/minimal/liblib__libc__minimal.a(malloc.c.obj)
 .bss           0x0000000000000000        0x0 zephyr/lib/libc/minimal/liblib__libc__minimal.a(malloc.c.obj)
 .text.malloc   0x0000000000000000        0xe zephyr/lib/libc/minimal/liblib__libc__minimal.a(malloc.c.obj)
 .text.free     0x0000000000000000        0x4 zephyr/lib/libc/minimal/liblib__libc__minimal.a(malloc.c.obj)
 .text.calloc   0x0000000000000000        0xe zephyr/lib/libc/minimal/liblib__libc__minimal.a(malloc.c.obj)
 .text.realloc  0x0000000000000000       0x40 zephyr/lib/libc/minimal/liblib__libc__minimal.a(malloc.c.obj)
 .text.reallocarray
                0x0000000000000000       0x1e zephyr/lib/libc/minimal/liblib__libc__minimal.a(malloc.c.obj)
 .debug_info    0x0000000000000000      0xa2d zephyr/lib/libc/minimal/liblib__libc__minimal.a(malloc.c.obj)
 .debug_abbrev  0x0000000000000000      0x2f9 zephyr/lib/libc/minimal/liblib__libc__minimal.a(malloc.c.obj)
 .debug_loc     0x0000000000000000      0x2ed zephyr/lib/libc/minimal/liblib__libc__minimal.a(malloc.c.obj)
 .debug_aranges
                0x0000000000000000       0x40 zephyr/lib/libc/minimal/liblib__libc__minimal.a(malloc.c.obj)
 .debug_ranges  0x0000000000000000       0x50 zephyr/lib/libc/minimal/liblib__libc__minimal.a(malloc.c.obj)
 .debug_line    0x0000000000000000      0x2ca zephyr/lib/libc/minimal/liblib__libc__minimal.a(malloc.c.obj)
 .debug_str     0x0000000000000000      0x6b4 zephyr/lib/libc/minimal/liblib__libc__minimal.a(malloc.c.obj)
 .comment       0x0000000000000000       0x80 zephyr/lib/libc/minimal/liblib__libc__minimal.a(malloc.c.obj)
 .debug_frame   0x0000000000000000       0x88 zephyr/lib/libc/minimal/liblib__libc__minimal.a(malloc.c.obj)
 .ARM.attributes
                0x0000000000000000       0x33 zephyr/lib/libc/minimal/liblib__libc__minimal.a(malloc.c.obj)
 .text          0x0000000000000000        0x0 zephyr/lib/libc/minimal/liblib__libc__minimal.a(strncasecmp.c.obj)
 .data          0x0000000000000000        0x0 zephyr/lib/libc/minimal/liblib__libc__minimal.a(strncasecmp.c.obj)
 .bss           0x0000000000000000        0x0 zephyr/lib/libc/minimal/liblib__libc__minimal.a(strncasecmp.c.obj)
 .text.strncasecmp
                0x0000000000000000       0x4c zephyr/lib/libc/minimal/liblib__libc__minimal.a(strncasecmp.c.obj)
 .debug_info    0x0000000000000000      0x11e zephyr/lib/libc/minimal/liblib__libc__minimal.a(strncasecmp.c.obj)
 .debug_abbrev  0x0000000000000000       0xe0 zephyr/lib/libc/minimal/liblib__libc__minimal.a(strncasecmp.c.obj)
 .debug_loc     0x0000000000000000      0x11c zephyr/lib/libc/minimal/liblib__libc__minimal.a(strncasecmp.c.obj)
 .debug_aranges
                0x0000000000000000       0x20 zephyr/lib/libc/minimal/liblib__libc__minimal.a(strncasecmp.c.obj)
 .debug_ranges  0x0000000000000000       0x28 zephyr/lib/libc/minimal/liblib__libc__minimal.a(strncasecmp.c.obj)
 .debug_line    0x0000000000000000      0x139 zephyr/lib/libc/minimal/liblib__libc__minimal.a(strncasecmp.c.obj)
 .debug_str     0x0000000000000000      0x1d8 zephyr/lib/libc/minimal/liblib__libc__minimal.a(strncasecmp.c.obj)
 .comment       0x0000000000000000       0x80 zephyr/lib/libc/minimal/liblib__libc__minimal.a(strncasecmp.c.obj)
 .debug_frame   0x0000000000000000       0x2c zephyr/lib/libc/minimal/liblib__libc__minimal.a(strncasecmp.c.obj)
 .ARM.attributes
                0x0000000000000000       0x33 zephyr/lib/libc/minimal/liblib__libc__minimal.a(strncasecmp.c.obj)
 .text          0x0000000000000000        0x0 zephyr/lib/libc/minimal/liblib__libc__minimal.a(strstr.c.obj)
 .data          0x0000000000000000        0x0 zephyr/lib/libc/minimal/liblib__libc__minimal.a(strstr.c.obj)
 .bss           0x0000000000000000        0x0 zephyr/lib/libc/minimal/liblib__libc__minimal.a(strstr.c.obj)
 .text.strstr   0x0000000000000000       0x3a zephyr/lib/libc/minimal/liblib__libc__minimal.a(strstr.c.obj)
 .debug_info    0x0000000000000000       0xfb zephyr/lib/libc/minimal/liblib__libc__minimal.a(strstr.c.obj)
 .debug_abbrev  0x0000000000000000       0xd4 zephyr/lib/libc/minimal/liblib__libc__minimal.a(strstr.c.obj)
 .debug_loc     0x0000000000000000       0xd0 zephyr/lib/libc/minimal/liblib__libc__minimal.a(strstr.c.obj)
 .debug_aranges
                0x0000000000000000       0x20 zephyr/lib/libc/minimal/liblib__libc__minimal.a(strstr.c.obj)
 .debug_ranges  0x0000000000000000       0x10 zephyr/lib/libc/minimal/liblib__libc__minimal.a(strstr.c.obj)
 .debug_line    0x0000000000000000      0x112 zephyr/lib/libc/minimal/liblib__libc__minimal.a(strstr.c.obj)
 .debug_str     0x0000000000000000      0x1be zephyr/lib/libc/minimal/liblib__libc__minimal.a(strstr.c.obj)
 .comment       0x0000000000000000       0x80 zephyr/lib/libc/minimal/liblib__libc__minimal.a(strstr.c.obj)
 .debug_frame   0x0000000000000000       0x30 zephyr/lib/libc/minimal/liblib__libc__minimal.a(strstr.c.obj)
 .ARM.attributes
                0x0000000000000000       0x33 zephyr/lib/libc/minimal/liblib__libc__minimal.a(strstr.c.obj)
 .text          0x0000000000000000        0x0 zephyr/lib/libc/minimal/liblib__libc__minimal.a(string.c.obj)
 .data          0x0000000000000000        0x0 zephyr/lib/libc/minimal/liblib__libc__minimal.a(string.c.obj)
 .bss           0x0000000000000000        0x0 zephyr/lib/libc/minimal/liblib__libc__minimal.a(string.c.obj)
 .text.strncpy  0x0000000000000000       0x26 zephyr/lib/libc/minimal/liblib__libc__minimal.a(string.c.obj)
 .text.strchr   0x0000000000000000       0x1c zephyr/lib/libc/minimal/liblib__libc__minimal.a(string.c.obj)
 .text.strrchr  0x0000000000000000       0x1a zephyr/lib/libc/minimal/liblib__libc__minimal.a(string.c.obj)
 .text.strlen   0x0000000000000000       0x10 zephyr/lib/libc/minimal/liblib__libc__minimal.a(string.c.obj)
 .text.strncmp  0x0000000000000000       0x1e zephyr/lib/libc/minimal/liblib__libc__minimal.a(string.c.obj)
 .text.strcat   0x0000000000000000       0x16 zephyr/lib/libc/minimal/liblib__libc__minimal.a(string.c.obj)
 .text.strncat  0x0000000000000000       0x2a zephyr/lib/libc/minimal/liblib__libc__minimal.a(string.c.obj)
 .text.memmove  0x0000000000000000       0x2e zephyr/lib/libc/minimal/liblib__libc__minimal.a(string.c.obj)
 .text.memchr   0x0000000000000000       0x1e zephyr/lib/libc/minimal/liblib__libc__minimal.a(string.c.obj)
 .text          0x0000000000000000        0x0 zephyr/lib/libc/minimal/liblib__libc__minimal.a(prf.c.obj)
 .data          0x0000000000000000        0x0 zephyr/lib/libc/minimal/liblib__libc__minimal.a(prf.c.obj)
 .bss           0x0000000000000000        0x0 zephyr/lib/libc/minimal/liblib__libc__minimal.a(prf.c.obj)
 .text._to_x    0x0000000000000000       0x50 zephyr/lib/libc/minimal/liblib__libc__minimal.a(prf.c.obj)
 .text._rlrshift
                0x0000000000000000       0x28 zephyr/lib/libc/minimal/liblib__libc__minimal.a(prf.c.obj)
 .text._ldiv5   0x0000000000000000       0x62 zephyr/lib/libc/minimal/liblib__libc__minimal.a(prf.c.obj)
 .text._get_digit
                0x0000000000000000       0x36 zephyr/lib/libc/minimal/liblib__libc__minimal.a(prf.c.obj)
 .text._prf     0x0000000000000000      0x7cc zephyr/lib/libc/minimal/liblib__libc__minimal.a(prf.c.obj)
 .rodata._prf.str1.1
                0x0000000000000000        0xb zephyr/lib/libc/minimal/liblib__libc__minimal.a(prf.c.obj)
 .debug_info    0x0000000000000000      0xc5d zephyr/lib/libc/minimal/liblib__libc__minimal.a(prf.c.obj)
 .debug_abbrev  0x0000000000000000      0x32c zephyr/lib/libc/minimal/liblib__libc__minimal.a(prf.c.obj)
 .debug_loc     0x0000000000000000     0x1597 zephyr/lib/libc/minimal/liblib__libc__minimal.a(prf.c.obj)
 .debug_aranges
                0x0000000000000000       0x40 zephyr/lib/libc/minimal/liblib__libc__minimal.a(prf.c.obj)
 .debug_ranges  0x0000000000000000      0x108 zephyr/lib/libc/minimal/liblib__libc__minimal.a(prf.c.obj)
 .debug_line    0x0000000000000000      0x419 zephyr/lib/libc/minimal/liblib__libc__minimal.a(prf.c.obj)
 .debug_str     0x0000000000000000      0x3dc zephyr/lib/libc/minimal/liblib__libc__minimal.a(prf.c.obj)
 .comment       0x0000000000000000       0x80 zephyr/lib/libc/minimal/liblib__libc__minimal.a(prf.c.obj)
 .debug_frame   0x0000000000000000       0xbc zephyr/lib/libc/minimal/liblib__libc__minimal.a(prf.c.obj)
 .ARM.attributes
                0x0000000000000000       0x33 zephyr/lib/libc/minimal/liblib__libc__minimal.a(prf.c.obj)
 .text          0x0000000000000000        0x0 zephyr/lib/libc/minimal/liblib__libc__minimal.a(stdout_console.c.obj)
 .data          0x0000000000000000        0x0 zephyr/lib/libc/minimal/liblib__libc__minimal.a(stdout_console.c.obj)
 .bss           0x0000000000000000        0x0 zephyr/lib/libc/minimal/liblib__libc__minimal.a(stdout_console.c.obj)
 .text._impl__zephyr_fputc
                0x0000000000000000       0x14 zephyr/lib/libc/minimal/liblib__libc__minimal.a(stdout_console.c.obj)
 .text.fputc    0x0000000000000000        0x4 zephyr/lib/libc/minimal/liblib__libc__minimal.a(stdout_console.c.obj)
 .text._impl__zephyr_fwrite
                0x0000000000000000       0x48 zephyr/lib/libc/minimal/liblib__libc__minimal.a(stdout_console.c.obj)
 .text.fputs    0x0000000000000000       0x22 zephyr/lib/libc/minimal/liblib__libc__minimal.a(stdout_console.c.obj)
 .text.fwrite   0x0000000000000000        0x4 zephyr/lib/libc/minimal/liblib__libc__minimal.a(stdout_console.c.obj)
 .text.puts     0x0000000000000000       0x20 zephyr/lib/libc/minimal/liblib__libc__minimal.a(stdout_console.c.obj)
 .text          0x0000000000000000        0x0 zephyr/lib/libc/minimal/liblib__libc__minimal.a(sprintf.c.obj)
 .data          0x0000000000000000        0x0 zephyr/lib/libc/minimal/liblib__libc__minimal.a(sprintf.c.obj)
 .bss           0x0000000000000000        0x0 zephyr/lib/libc/minimal/liblib__libc__minimal.a(sprintf.c.obj)
 .text.sprintf_out
                0x0000000000000000       0x1a zephyr/lib/libc/minimal/liblib__libc__minimal.a(sprintf.c.obj)
 .text.snprintf
                0x0000000000000000       0x30 zephyr/lib/libc/minimal/liblib__libc__minimal.a(sprintf.c.obj)
 .text.sprintf  0x0000000000000000       0x30 zephyr/lib/libc/minimal/liblib__libc__minimal.a(sprintf.c.obj)
 .text.vsnprintf
                0x0000000000000000       0x24 zephyr/lib/libc/minimal/liblib__libc__minimal.a(sprintf.c.obj)
 .text.vsprintf
                0x0000000000000000       0x28 zephyr/lib/libc/minimal/liblib__libc__minimal.a(sprintf.c.obj)
 .debug_info    0x0000000000000000      0x35a zephyr/lib/libc/minimal/liblib__libc__minimal.a(sprintf.c.obj)
 .debug_abbrev  0x0000000000000000      0x163 zephyr/lib/libc/minimal/liblib__libc__minimal.a(sprintf.c.obj)
 .debug_loc     0x0000000000000000      0x1e5 zephyr/lib/libc/minimal/liblib__libc__minimal.a(sprintf.c.obj)
 .debug_aranges
                0x0000000000000000       0x40 zephyr/lib/libc/minimal/liblib__libc__minimal.a(sprintf.c.obj)
 .debug_ranges  0x0000000000000000       0x30 zephyr/lib/libc/minimal/liblib__libc__minimal.a(sprintf.c.obj)
 .debug_line    0x0000000000000000      0x143 zephyr/lib/libc/minimal/liblib__libc__minimal.a(sprintf.c.obj)
 .debug_str     0x0000000000000000      0x21a zephyr/lib/libc/minimal/liblib__libc__minimal.a(sprintf.c.obj)
 .comment       0x0000000000000000       0x80 zephyr/lib/libc/minimal/liblib__libc__minimal.a(sprintf.c.obj)
 .debug_frame   0x0000000000000000       0xa4 zephyr/lib/libc/minimal/liblib__libc__minimal.a(sprintf.c.obj)
 .ARM.attributes
                0x0000000000000000       0x33 zephyr/lib/libc/minimal/liblib__libc__minimal.a(sprintf.c.obj)
 .text          0x0000000000000000        0x0 zephyr/lib/libc/minimal/liblib__libc__minimal.a(fprintf.c.obj)
 .data          0x0000000000000000        0x0 zephyr/lib/libc/minimal/liblib__libc__minimal.a(fprintf.c.obj)
 .bss           0x0000000000000000        0x0 zephyr/lib/libc/minimal/liblib__libc__minimal.a(fprintf.c.obj)
 .text.fprintf  0x0000000000000000       0x24 zephyr/lib/libc/minimal/liblib__libc__minimal.a(fprintf.c.obj)
 .text.vfprintf
                0x0000000000000000       0x10 zephyr/lib/libc/minimal/liblib__libc__minimal.a(fprintf.c.obj)
 .text.printf   0x0000000000000000       0x24 zephyr/lib/libc/minimal/liblib__libc__minimal.a(fprintf.c.obj)
 .text.vprintf  0x0000000000000000       0x10 zephyr/lib/libc/minimal/liblib__libc__minimal.a(fprintf.c.obj)
 .debug_info    0x0000000000000000      0x223 zephyr/lib/libc/minimal/liblib__libc__minimal.a(fprintf.c.obj)
 .debug_abbrev  0x0000000000000000      0x120 zephyr/lib/libc/minimal/liblib__libc__minimal.a(fprintf.c.obj)
 .debug_loc     0x0000000000000000       0xd6 zephyr/lib/libc/minimal/liblib__libc__minimal.a(fprintf.c.obj)
 .debug_aranges
                0x0000000000000000       0x38 zephyr/lib/libc/minimal/liblib__libc__minimal.a(fprintf.c.obj)
 .debug_ranges  0x0000000000000000       0x28 zephyr/lib/libc/minimal/liblib__libc__minimal.a(fprintf.c.obj)
 .debug_line    0x0000000000000000      0x14d zephyr/lib/libc/minimal/liblib__libc__minimal.a(fprintf.c.obj)
 .debug_str     0x0000000000000000      0x1fa zephyr/lib/libc/minimal/liblib__libc__minimal.a(fprintf.c.obj)
 .comment       0x0000000000000000       0x80 zephyr/lib/libc/minimal/liblib__libc__minimal.a(fprintf.c.obj)
 .debug_frame   0x0000000000000000       0x8c zephyr/lib/libc/minimal/liblib__libc__minimal.a(fprintf.c.obj)
 .ARM.attributes
                0x0000000000000000       0x33 zephyr/lib/libc/minimal/liblib__libc__minimal.a(fprintf.c.obj)
 .text          0x0000000000000000        0x0 zephyr/subsys/bluetooth/common/libsubsys__bluetooth__common.a(dummy.c.obj)
 .data          0x0000000000000000        0x0 zephyr/subsys/bluetooth/common/libsubsys__bluetooth__common.a(dummy.c.obj)
 .bss           0x0000000000000000        0x0 zephyr/subsys/bluetooth/common/libsubsys__bluetooth__common.a(dummy.c.obj)
 .debug_info    0x0000000000000000      0x61f zephyr/subsys/bluetooth/common/libsubsys__bluetooth__common.a(dummy.c.obj)
 .debug_abbrev  0x0000000000000000      0x15d zephyr/subsys/bluetooth/common/libsubsys__bluetooth__common.a(dummy.c.obj)
 .debug_aranges
                0x0000000000000000       0x18 zephyr/subsys/bluetooth/common/libsubsys__bluetooth__common.a(dummy.c.obj)
 .debug_line    0x0000000000000000      0x18b zephyr/subsys/bluetooth/common/libsubsys__bluetooth__common.a(dummy.c.obj)
 .debug_str     0x0000000000000000      0x543 zephyr/subsys/bluetooth/common/libsubsys__bluetooth__common.a(dummy.c.obj)
 .comment       0x0000000000000000       0x80 zephyr/subsys/bluetooth/common/libsubsys__bluetooth__common.a(dummy.c.obj)
 .ARM.attributes
                0x0000000000000000       0x33 zephyr/subsys/bluetooth/common/libsubsys__bluetooth__common.a(dummy.c.obj)
 .text          0x0000000000000000        0x0 zephyr/subsys/bluetooth/host/libsubsys__bluetooth__host.a(uuid.c.obj)
 .data          0x0000000000000000        0x0 zephyr/subsys/bluetooth/host/libsubsys__bluetooth__host.a(uuid.c.obj)
 .bss           0x0000000000000000        0x0 zephyr/subsys/bluetooth/host/libsubsys__bluetooth__host.a(uuid.c.obj)
 .text.uuid_to_uuid128
                0x0000000000000000       0x7c zephyr/subsys/bluetooth/host/libsubsys__bluetooth__host.a(uuid.c.obj)
 .text.bt_uuid_cmp
                0x0000000000000000       0x54 zephyr/subsys/bluetooth/host/libsubsys__bluetooth__host.a(uuid.c.obj)
 .rodata.uuid128_base
                0x0000000000000000       0x11 zephyr/subsys/bluetooth/host/libsubsys__bluetooth__host.a(uuid.c.obj)
 .debug_info    0x0000000000000000      0x3bd zephyr/subsys/bluetooth/host/libsubsys__bluetooth__host.a(uuid.c.obj)
 .debug_abbrev  0x0000000000000000      0x1e7 zephyr/subsys/bluetooth/host/libsubsys__bluetooth__host.a(uuid.c.obj)
 .debug_loc     0x0000000000000000      0x260 zephyr/subsys/bluetooth/host/libsubsys__bluetooth__host.a(uuid.c.obj)
 .debug_aranges
                0x0000000000000000       0x28 zephyr/subsys/bluetooth/host/libsubsys__bluetooth__host.a(uuid.c.obj)
 .debug_ranges  0x0000000000000000       0x48 zephyr/subsys/bluetooth/host/libsubsys__bluetooth__host.a(uuid.c.obj)
 .debug_line    0x0000000000000000      0x199 zephyr/subsys/bluetooth/host/libsubsys__bluetooth__host.a(uuid.c.obj)
 .debug_str     0x0000000000000000      0x2c7 zephyr/subsys/bluetooth/host/libsubsys__bluetooth__host.a(uuid.c.obj)
 .comment       0x0000000000000000       0x80 zephyr/subsys/bluetooth/host/libsubsys__bluetooth__host.a(uuid.c.obj)
 .debug_frame   0x0000000000000000       0x5c zephyr/subsys/bluetooth/host/libsubsys__bluetooth__host.a(uuid.c.obj)
 .ARM.attributes
                0x0000000000000000       0x33 zephyr/subsys/bluetooth/host/libsubsys__bluetooth__host.a(uuid.c.obj)
 .text          0x0000000000000000        0x0 zephyr/subsys/bluetooth/host/libsubsys__bluetooth__host.a(hci_core.c.obj)
 .data          0x0000000000000000        0x0 zephyr/subsys/bluetooth/host/libsubsys__bluetooth__host.a(hci_core.c.obj)
 .bss           0x0000000000000000        0x0 zephyr/subsys/bluetooth/host/libsubsys__bluetooth__host.a(hci_core.c.obj)
 .text.le_set_private_addr
                0x0000000000000000       0x24 zephyr/subsys/bluetooth/host/libsubsys__bluetooth__host.a(hci_core.c.obj)
 .text.set_ad   0x0000000000000000       0xb2 zephyr/subsys/bluetooth/host/libsubsys__bluetooth__host.a(hci_core.c.obj)
 .text.bt_addr_le_create_nrpa
                0x0000000000000000       0x1c zephyr/subsys/bluetooth/host/libsubsys__bluetooth__host.a(hci_core.c.obj)
 .text.bt_dev_show_info
                0x0000000000000000        0x2 zephyr/subsys/bluetooth/host/libsubsys__bluetooth__host.a(hci_core.c.obj)
 .text.bt_send  0x0000000000000000       0x10 zephyr/subsys/bluetooth/host/libsubsys__bluetooth__host.a(hci_core.c.obj)
 .text.bt_hci_cmd_send
                0x0000000000000000       0x44 zephyr/subsys/bluetooth/host/libsubsys__bluetooth__host.a(hci_core.c.obj)
 .text.hci_tx_thread
                0x0000000000000000       0xac zephyr/subsys/bluetooth/host/libsubsys__bluetooth__host.a(hci_core.c.obj)
 .text.bt_enable
                0x0000000000000000       0xa8 zephyr/subsys/bluetooth/host/libsubsys__bluetooth__host.a(hci_core.c.obj)
 .text.bt_set_name
                0x0000000000000000        0x6 zephyr/subsys/bluetooth/host/libsubsys__bluetooth__host.a(hci_core.c.obj)
 .text.bt_get_name
                0x0000000000000000        0x8 zephyr/subsys/bluetooth/host/libsubsys__bluetooth__host.a(hci_core.c.obj)
 .text.bt_set_id_addr
                0x0000000000000000       0x50 zephyr/subsys/bluetooth/host/libsubsys__bluetooth__host.a(hci_core.c.obj)
 .text.bt_addr_le_is_bonded
                0x0000000000000000        0x4 zephyr/subsys/bluetooth/host/libsubsys__bluetooth__host.a(hci_core.c.obj)
 .text.bt_le_adv_start
                0x0000000000000000      0x1e0 zephyr/subsys/bluetooth/host/libsubsys__bluetooth__host.a(hci_core.c.obj)
 .text.bt_le_adv_stop
                0x0000000000000000       0x68 zephyr/subsys/bluetooth/host/libsubsys__bluetooth__host.a(hci_core.c.obj)
 .text.bt_hci_get_cmd_opcode
                0x0000000000000000       0x14 zephyr/subsys/bluetooth/host/libsubsys__bluetooth__host.a(hci_core.c.obj)
 .text.bt_pub_key_gen
                0x0000000000000000       0x74 zephyr/subsys/bluetooth/host/libsubsys__bluetooth__host.a(hci_core.c.obj)
 .text.bt_pub_key_get
                0x0000000000000000       0x20 zephyr/subsys/bluetooth/host/libsubsys__bluetooth__host.a(hci_core.c.obj)
 .text.bt_dh_key_gen
                0x0000000000000000       0x6c zephyr/subsys/bluetooth/host/libsubsys__bluetooth__host.a(hci_core.c.obj)
 .text.bt_le_oob_get_local
                0x0000000000000000       0x14 zephyr/subsys/bluetooth/host/libsubsys__bluetooth__host.a(hci_core.c.obj)
 .bss.tx_thread_data
                0x0000000000000000       0x70 zephyr/subsys/bluetooth/host/libsubsys__bluetooth__host.a(hci_core.c.obj)
 .data.events.11291
                0x0000000000000000       0x14 zephyr/subsys/bluetooth/host/libsubsys__bluetooth__host.a(hci_core.c.obj)
 .noinit."/home/mark/cs7ns2/zephyr/subsys/bluetooth/host/hci_core.c".0
                0x0000000000000000      0x280 zephyr/subsys/bluetooth/host/libsubsys__bluetooth__host.a(hci_core.c.obj)
 .rodata.bt_get_name.str1.1
                0x0000000000000000        0x7 zephyr/subsys/bluetooth/host/libsubsys__bluetooth__host.a(hci_core.c.obj)
 .text          0x0000000000000000        0x0 zephyr/subsys/bluetooth/controller/libsubsys__bluetooth__controller.a(mem.c.obj)
 .data          0x0000000000000000        0x0 zephyr/subsys/bluetooth/controller/libsubsys__bluetooth__controller.a(mem.c.obj)
 .bss           0x0000000000000000        0x0 zephyr/subsys/bluetooth/controller/libsubsys__bluetooth__controller.a(mem.c.obj)
 .text.mem_free_count_get
                0x0000000000000000        0xc zephyr/subsys/bluetooth/controller/libsubsys__bluetooth__controller.a(mem.c.obj)
 .text.mem_nz   0x0000000000000000       0x16 zephyr/subsys/bluetooth/controller/libsubsys__bluetooth__controller.a(mem.c.obj)
 .text.mem_ut   0x0000000000000000       0xaa zephyr/subsys/bluetooth/controller/libsubsys__bluetooth__controller.a(mem.c.obj)
 .text          0x0000000000000000        0x0 zephyr/subsys/bluetooth/controller/libsubsys__bluetooth__controller.a(memq.c.obj)
 .data          0x0000000000000000        0x0 zephyr/subsys/bluetooth/controller/libsubsys__bluetooth__controller.a(memq.c.obj)
 .bss           0x0000000000000000        0x0 zephyr/subsys/bluetooth/controller/libsubsys__bluetooth__controller.a(memq.c.obj)
 .text          0x0000000000000000        0x0 zephyr/subsys/bluetooth/controller/libsubsys__bluetooth__controller.a(mayfly.c.obj)
 .data          0x0000000000000000        0x0 zephyr/subsys/bluetooth/controller/libsubsys__bluetooth__controller.a(mayfly.c.obj)
 .bss           0x0000000000000000        0x0 zephyr/subsys/bluetooth/controller/libsubsys__bluetooth__controller.a(mayfly.c.obj)
 .text          0x0000000000000000        0x0 zephyr/subsys/bluetooth/controller/libsubsys__bluetooth__controller.a(util.c.obj)
 .data          0x0000000000000000        0x0 zephyr/subsys/bluetooth/controller/libsubsys__bluetooth__controller.a(util.c.obj)
 .bss           0x0000000000000000        0x0 zephyr/subsys/bluetooth/controller/libsubsys__bluetooth__controller.a(util.c.obj)
 .text          0x0000000000000000        0x0 zephyr/subsys/bluetooth/controller/libsubsys__bluetooth__controller.a(ticker.c.obj)
 .data          0x0000000000000000        0x0 zephyr/subsys/bluetooth/controller/libsubsys__bluetooth__controller.a(ticker.c.obj)
 .bss           0x0000000000000000        0x0 zephyr/subsys/bluetooth/controller/libsubsys__bluetooth__controller.a(ticker.c.obj)
 .text.ticker_is_initialized
                0x0000000000000000       0x18 zephyr/subsys/bluetooth/controller/libsubsys__bluetooth__controller.a(ticker.c.obj)
 .text          0x0000000000000000        0x0 zephyr/subsys/bluetooth/controller/libsubsys__bluetooth__controller.a(ll_addr.c.obj)
 .data          0x0000000000000000        0x0 zephyr/subsys/bluetooth/controller/libsubsys__bluetooth__controller.a(ll_addr.c.obj)
 .bss           0x0000000000000000        0x0 zephyr/subsys/bluetooth/controller/libsubsys__bluetooth__controller.a(ll_addr.c.obj)
 .text          0x0000000000000000        0x0 zephyr/subsys/bluetooth/controller/libsubsys__bluetooth__controller.a(ll_tx_pwr.c.obj)
 .data          0x0000000000000000        0x0 zephyr/subsys/bluetooth/controller/libsubsys__bluetooth__controller.a(ll_tx_pwr.c.obj)
 .bss           0x0000000000000000        0x0 zephyr/subsys/bluetooth/controller/libsubsys__bluetooth__controller.a(ll_tx_pwr.c.obj)
 .text.ll_tx_pwr_lvl_get
                0x0000000000000000        0x6 zephyr/subsys/bluetooth/controller/libsubsys__bluetooth__controller.a(ll_tx_pwr.c.obj)
 .text          0x0000000000000000        0x0 zephyr/subsys/bluetooth/controller/libsubsys__bluetooth__controller.a(ctrl.c.obj)
 .data          0x0000000000000000        0x0 zephyr/subsys/bluetooth/controller/libsubsys__bluetooth__controller.a(ctrl.c.obj)
 .bss           0x0000000000000000        0x0 zephyr/subsys/bluetooth/controller/libsubsys__bluetooth__controller.a(ctrl.c.obj)
 .text.ticker_op_latency_cancelled
                0x0000000000000000       0x16 zephyr/subsys/bluetooth/controller/libsubsys__bluetooth__controller.a(ctrl.c.obj)
 .text.event_stop
                0x0000000000000000       0x20 zephyr/subsys/bluetooth/controller/libsubsys__bluetooth__controller.a(ctrl.c.obj)
 .text.mayfly_sched_after_mstr_free_offset_get
                0x0000000000000000       0x1c zephyr/subsys/bluetooth/controller/libsubsys__bluetooth__controller.a(ctrl.c.obj)
 .text.event_scan_prepare
                0x0000000000000000       0x80 zephyr/subsys/bluetooth/controller/libsubsys__bluetooth__controller.a(ctrl.c.obj)
 .text.event_scan
                0x0000000000000000      0x144 zephyr/subsys/bluetooth/controller/libsubsys__bluetooth__controller.a(ctrl.c.obj)
 .text.radio_hf_clock_get
                0x0000000000000000        0xc zephyr/subsys/bluetooth/controller/libsubsys__bluetooth__controller.a(ctrl.c.obj)
 .text.ll_radio_state_abort
                0x0000000000000000        0x6 zephyr/subsys/bluetooth/controller/libsubsys__bluetooth__controller.a(ctrl.c.obj)
 .text.ll_radio_state_is_idle
                0x0000000000000000        0x4 zephyr/subsys/bluetooth/controller/libsubsys__bluetooth__controller.a(ctrl.c.obj)
 .text.radio_ticks_active_to_start_set
                0x0000000000000000        0xc zephyr/subsys/bluetooth/controller/libsubsys__bluetooth__controller.a(ctrl.c.obj)
 .text.radio_connect_enable
                0x0000000000000000      0x2b0 zephyr/subsys/bluetooth/controller/libsubsys__bluetooth__controller.a(ctrl.c.obj)
 .text.ll_conn_update
                0x0000000000000000       0x60 zephyr/subsys/bluetooth/controller/libsubsys__bluetooth__controller.a(ctrl.c.obj)
 .text.ll_chm_update
                0x0000000000000000       0x84 zephyr/subsys/bluetooth/controller/libsubsys__bluetooth__controller.a(ctrl.c.obj)
 .text.ll_chm_get
                0x0000000000000000       0x2a zephyr/subsys/bluetooth/controller/libsubsys__bluetooth__controller.a(ctrl.c.obj)
 .text.ll_feature_req_send
                0x0000000000000000       0x28 zephyr/subsys/bluetooth/controller/libsubsys__bluetooth__controller.a(ctrl.c.obj)
 .text.ll_version_ind_send
                0x0000000000000000       0x28 zephyr/subsys/bluetooth/controller/libsubsys__bluetooth__controller.a(ctrl.c.obj)
 .text.ll_terminate_ind_send
                0x0000000000000000       0x28 zephyr/subsys/bluetooth/controller/libsubsys__bluetooth__controller.a(ctrl.c.obj)
 .text.radio_rx_fc_get
                0x0000000000000000       0x28 zephyr/subsys/bluetooth/controller/libsubsys__bluetooth__controller.a(ctrl.c.obj)
 .text.ll_tx_mem_acquire
                0x0000000000000000        0xc zephyr/subsys/bluetooth/controller/libsubsys__bluetooth__controller.a(ctrl.c.obj)
 .text.ll_tx_mem_release
                0x0000000000000000        0xc zephyr/subsys/bluetooth/controller/libsubsys__bluetooth__controller.a(ctrl.c.obj)
 .text.ll_tx_mem_enqueue
                0x0000000000000000       0xb8 zephyr/subsys/bluetooth/controller/libsubsys__bluetooth__controller.a(ctrl.c.obj)
 .text.radio_scan_enable
                0x0000000000000000      0x1a4 zephyr/subsys/bluetooth/controller/libsubsys__bluetooth__controller.a(ctrl.c.obj)
 .text.radio_scan_disable
                0x0000000000000000       0x5c zephyr/subsys/bluetooth/controller/libsubsys__bluetooth__controller.a(ctrl.c.obj)
 .text.ll_connect_disable
                0x0000000000000000       0x14 zephyr/subsys/bluetooth/controller/libsubsys__bluetooth__controller.a(ctrl.c.obj)
 .bss.s_link.12282
                0x0000000000000000        0x8 zephyr/subsys/bluetooth/controller/libsubsys__bluetooth__controller.a(ctrl.c.obj)
 .data.s_mfy_sched_after_mstr_free_offset_get.12283
                0x0000000000000000       0x10 zephyr/subsys/bluetooth/controller/libsubsys__bluetooth__controller.a(ctrl.c.obj)
 .text          0x0000000000000000        0x0 zephyr/subsys/bluetooth/controller/libsubsys__bluetooth__controller.a(ll.c.obj)
 .data          0x0000000000000000        0x0 zephyr/subsys/bluetooth/controller/libsubsys__bluetooth__controller.a(ll.c.obj)
 .bss           0x0000000000000000        0x0 zephyr/subsys/bluetooth/controller/libsubsys__bluetooth__controller.a(ll.c.obj)
 .text.ll_timeslice_ticker_id_get
                0x0000000000000000        0xa zephyr/subsys/bluetooth/controller/libsubsys__bluetooth__controller.a(ll.c.obj)
 .text          0x0000000000000000        0x0 zephyr/subsys/bluetooth/controller/libsubsys__bluetooth__controller.a(hci_driver.c.obj)
 .data          0x0000000000000000        0x0 zephyr/subsys/bluetooth/controller/libsubsys__bluetooth__controller.a(hci_driver.c.obj)
 .bss           0x0000000000000000        0x0 zephyr/subsys/bluetooth/controller/libsubsys__bluetooth__controller.a(hci_driver.c.obj)
 .text          0x0000000000000000        0x0 zephyr/subsys/bluetooth/controller/libsubsys__bluetooth__controller.a(hci.c.obj)
 .data          0x0000000000000000        0x0 zephyr/subsys/bluetooth/controller/libsubsys__bluetooth__controller.a(hci.c.obj)
 .bss           0x0000000000000000        0x0 zephyr/subsys/bluetooth/controller/libsubsys__bluetooth__controller.a(hci.c.obj)
 .text.hci_acl_handle
                0x0000000000000000       0xbc zephyr/subsys/bluetooth/controller/libsubsys__bluetooth__controller.a(hci.c.obj)
 .text.hci_num_cmplt_encode
                0x0000000000000000       0x28 zephyr/subsys/bluetooth/controller/libsubsys__bluetooth__controller.a(hci.c.obj)
 .text          0x0000000000000000        0x0 zephyr/subsys/bluetooth/controller/libsubsys__bluetooth__controller.a(crypto.c.obj)
 .data          0x0000000000000000        0x0 zephyr/subsys/bluetooth/controller/libsubsys__bluetooth__controller.a(crypto.c.obj)
 .bss           0x0000000000000000        0x0 zephyr/subsys/bluetooth/controller/libsubsys__bluetooth__controller.a(crypto.c.obj)
 .text.bt_encrypt_le
                0x0000000000000000        0xc zephyr/subsys/bluetooth/controller/libsubsys__bluetooth__controller.a(crypto.c.obj)
 .text.bt_encrypt_be
                0x0000000000000000        0xa zephyr/subsys/bluetooth/controller/libsubsys__bluetooth__controller.a(crypto.c.obj)
 .text          0x0000000000000000        0x0 zephyr/subsys/bluetooth/controller/libsubsys__bluetooth__controller.a(ll_adv.c.obj)
 .data          0x0000000000000000        0x0 zephyr/subsys/bluetooth/controller/libsubsys__bluetooth__controller.a(ll_adv.c.obj)
 .bss           0x0000000000000000        0x0 zephyr/subsys/bluetooth/controller/libsubsys__bluetooth__controller.a(ll_adv.c.obj)
 .text.ll_adv_set_get
                0x0000000000000000        0x8 zephyr/subsys/bluetooth/controller/libsubsys__bluetooth__controller.a(ll_adv.c.obj)
 .text          0x0000000000000000        0x0 zephyr/subsys/bluetooth/controller/libsubsys__bluetooth__controller.a(ll_filter.c.obj)
 .data          0x0000000000000000        0x0 zephyr/subsys/bluetooth/controller/libsubsys__bluetooth__controller.a(ll_filter.c.obj)
 .bss           0x0000000000000000        0x0 zephyr/subsys/bluetooth/controller/libsubsys__bluetooth__controller.a(ll_filter.c.obj)
 .text          0x0000000000000000        0x0 zephyr/subsys/bluetooth/controller/libsubsys__bluetooth__controller.a(cntr.c.obj)
 .data          0x0000000000000000        0x0 zephyr/subsys/bluetooth/controller/libsubsys__bluetooth__controller.a(cntr.c.obj)
 .bss           0x0000000000000000        0x0 zephyr/subsys/bluetooth/controller/libsubsys__bluetooth__controller.a(cntr.c.obj)
 .text          0x0000000000000000        0x0 zephyr/subsys/bluetooth/controller/libsubsys__bluetooth__controller.a(ecb.c.obj)
 .data          0x0000000000000000        0x0 zephyr/subsys/bluetooth/controller/libsubsys__bluetooth__controller.a(ecb.c.obj)
 .bss           0x0000000000000000        0x0 zephyr/subsys/bluetooth/controller/libsubsys__bluetooth__controller.a(ecb.c.obj)
 .text.ecb_cb   0x0000000000000000       0x16 zephyr/subsys/bluetooth/controller/libsubsys__bluetooth__controller.a(ecb.c.obj)
 .text.ecb_encrypt_be
                0x0000000000000000       0x32 zephyr/subsys/bluetooth/controller/libsubsys__bluetooth__controller.a(ecb.c.obj)
 .text.ecb_encrypt_nonblocking
                0x0000000000000000       0x50 zephyr/subsys/bluetooth/controller/libsubsys__bluetooth__controller.a(ecb.c.obj)
 .text.isr_ecb  0x0000000000000000       0x60 zephyr/subsys/bluetooth/controller/libsubsys__bluetooth__controller.a(ecb.c.obj)
 .text.ecb_ut   0x0000000000000000       0x80 zephyr/subsys/bluetooth/controller/libsubsys__bluetooth__controller.a(ecb.c.obj)
 .rodata        0x0000000000000000       0x10 zephyr/subsys/bluetooth/controller/libsubsys__bluetooth__controller.a(ecb.c.obj)
 .text          0x0000000000000000        0x0 zephyr/subsys/bluetooth/controller/libsubsys__bluetooth__controller.a(radio.c.obj)
 .data          0x0000000000000000        0x0 zephyr/subsys/bluetooth/controller/libsubsys__bluetooth__controller.a(radio.c.obj)
 .bss           0x0000000000000000        0x0 zephyr/subsys/bluetooth/controller/libsubsys__bluetooth__controller.a(radio.c.obj)
 .text.radio_tx_power_max_set
                0x0000000000000000       0x10 zephyr/subsys/bluetooth/controller/libsubsys__bluetooth__controller.a(radio.c.obj)
 .text.radio_has_disabled
                0x0000000000000000       0x14 zephyr/subsys/bluetooth/controller/libsubsys__bluetooth__controller.a(radio.c.obj)
 .text.radio_bc_configure
                0x0000000000000000       0x18 zephyr/subsys/bluetooth/controller/libsubsys__bluetooth__controller.a(radio.c.obj)
 .text.radio_bc_status_reset
                0x0000000000000000       0x10 zephyr/subsys/bluetooth/controller/libsubsys__bluetooth__controller.a(radio.c.obj)
 .text.radio_bc_has_match
                0x0000000000000000       0x14 zephyr/subsys/bluetooth/controller/libsubsys__bluetooth__controller.a(radio.c.obj)
 .text.radio_tmr_start_us
                0x0000000000000000       0x10 zephyr/subsys/bluetooth/controller/libsubsys__bluetooth__controller.a(radio.c.obj)
 .text.radio_tmr_start_now
                0x0000000000000000       0x34 zephyr/subsys/bluetooth/controller/libsubsys__bluetooth__controller.a(radio.c.obj)
 .text.radio_tmr_sample
                0x0000000000000000        0xc zephyr/subsys/bluetooth/controller/libsubsys__bluetooth__controller.a(radio.c.obj)
 .text.radio_tmr_sample_get
                0x0000000000000000        0xc zephyr/subsys/bluetooth/controller/libsubsys__bluetooth__controller.a(radio.c.obj)
 .text.radio_ar_configure
                0x0000000000000000       0x64 zephyr/subsys/bluetooth/controller/libsubsys__bluetooth__controller.a(radio.c.obj)
 .bss._aar_scratch
                0x0000000000000000        0x3 zephyr/subsys/bluetooth/controller/libsubsys__bluetooth__controller.a(radio.c.obj)
 .text          0x0000000000000000        0x0 zephyr/subsys/bluetooth/controller/libsubsys__bluetooth__controller.a(mayfly.c.obj)
 .data          0x0000000000000000        0x0 zephyr/subsys/bluetooth/controller/libsubsys__bluetooth__controller.a(mayfly.c.obj)
 .bss           0x0000000000000000        0x0 zephyr/subsys/bluetooth/controller/libsubsys__bluetooth__controller.a(mayfly.c.obj)
 .text          0x0000000000000000        0x0 zephyr/subsys/bluetooth/controller/libsubsys__bluetooth__controller.a(ticker.c.obj)
 .data          0x0000000000000000        0x0 zephyr/subsys/bluetooth/controller/libsubsys__bluetooth__controller.a(ticker.c.obj)
 .bss           0x0000000000000000        0x0 zephyr/subsys/bluetooth/controller/libsubsys__bluetooth__controller.a(ticker.c.obj)
 .text          0x0000000000000000        0x0 zephyr/subsys/net/libsubsys__net.a(buf.c.obj)
 .data          0x0000000000000000        0x0 zephyr/subsys/net/libsubsys__net.a(buf.c.obj)
 .bss           0x0000000000000000        0x0 zephyr/subsys/net/libsubsys__net.a(buf.c.obj)
 .text.generic_data_ref
                0x0000000000000000        0xe zephyr/subsys/net/libsubsys__net.a(buf.c.obj)
 .text.mem_pool_data_alloc
                0x0000000000000000       0x40 zephyr/subsys/net/libsubsys__net.a(buf.c.obj)
 .text.mem_pool_data_unref
                0x0000000000000000       0x28 zephyr/subsys/net/libsubsys__net.a(buf.c.obj)
 .text.net_buf_reset
                0x0000000000000000        0xa zephyr/subsys/net/libsubsys__net.a(buf.c.obj)
 .text.net_buf_alloc_with_data
                0x0000000000000000       0x20 zephyr/subsys/net/libsubsys__net.a(buf.c.obj)
 .text.net_buf_get
                0x0000000000000000       0x32 zephyr/subsys/net/libsubsys__net.a(buf.c.obj)
 .text.net_buf_slist_put
                0x0000000000000000       0x32 zephyr/subsys/net/libsubsys__net.a(buf.c.obj)
 .text.net_buf_slist_get
                0x0000000000000000       0x66 zephyr/subsys/net/libsubsys__net.a(buf.c.obj)
 .text.net_buf_frag_last
                0x0000000000000000        0xa zephyr/subsys/net/libsubsys__net.a(buf.c.obj)
 .text.net_buf_frag_insert
                0x0000000000000000       0x16 zephyr/subsys/net/libsubsys__net.a(buf.c.obj)
 .text.net_buf_frag_add
                0x0000000000000000       0x20 zephyr/subsys/net/libsubsys__net.a(buf.c.obj)
 .text.net_buf_frag_del
                0x0000000000000000       0x18 zephyr/subsys/net/libsubsys__net.a(buf.c.obj)
 .text.net_buf_linearize
                0x0000000000000000       0x72 zephyr/subsys/net/libsubsys__net.a(buf.c.obj)
 .text.net_buf_clone
                0x0000000000000000       0xcc zephyr/subsys/net/libsubsys__net.a(buf.c.obj)
 .text.net_buf_simple_add_u8
                0x0000000000000000       0x10 zephyr/subsys/net/libsubsys__net.a(buf.c.obj)
 .text.net_buf_simple_add_le16
                0x0000000000000000       0x1e zephyr/subsys/net/libsubsys__net.a(buf.c.obj)
 .text.net_buf_simple_add_be16
                0x0000000000000000       0x22 zephyr/subsys/net/libsubsys__net.a(buf.c.obj)
 .text.net_buf_simple_add_le32
                0x0000000000000000       0x1e zephyr/subsys/net/libsubsys__net.a(buf.c.obj)
 .text.net_buf_simple_add_be32
                0x0000000000000000       0x1e zephyr/subsys/net/libsubsys__net.a(buf.c.obj)
 .text.net_buf_simple_push
                0x0000000000000000       0x10 zephyr/subsys/net/libsubsys__net.a(buf.c.obj)
 .text.net_buf_simple_push_le16
                0x0000000000000000       0x22 zephyr/subsys/net/libsubsys__net.a(buf.c.obj)
 .text.net_buf_simple_push_be16
                0x0000000000000000       0x28 zephyr/subsys/net/libsubsys__net.a(buf.c.obj)
 .text.net_buf_simple_push_u8
                0x0000000000000000       0x12 zephyr/subsys/net/libsubsys__net.a(buf.c.obj)
 .text.net_buf_simple_pull_u8
                0x0000000000000000       0x10 zephyr/subsys/net/libsubsys__net.a(buf.c.obj)
 .text.net_buf_simple_pull_le16
                0x0000000000000000       0x10 zephyr/subsys/net/libsubsys__net.a(buf.c.obj)
 .text.net_buf_simple_pull_be16
                0x0000000000000000       0x16 zephyr/subsys/net/libsubsys__net.a(buf.c.obj)
 .text.net_buf_simple_pull_le32
                0x0000000000000000       0x10 zephyr/subsys/net/libsubsys__net.a(buf.c.obj)
 .text.net_buf_simple_pull_be32
                0x0000000000000000       0x12 zephyr/subsys/net/libsubsys__net.a(buf.c.obj)
 .text.net_buf_simple_headroom
                0x0000000000000000        0x8 zephyr/subsys/net/libsubsys__net.a(buf.c.obj)
 .text.net_buf_simple_tailroom
                0x0000000000000000       0x10 zephyr/subsys/net/libsubsys__net.a(buf.c.obj)
 .text.net_buf_append_bytes
                0x0000000000000000       0x64 zephyr/subsys/net/libsubsys__net.a(buf.c.obj)
 .rodata.net_buf_var_cb
                0x0000000000000000        0xc zephyr/subsys/net/libsubsys__net.a(buf.c.obj)
 .text          0x0000000000000000        0x0 zephyr/drivers/gpio/libdrivers__gpio.a(gpio_nrf5.c.obj)
 .data          0x0000000000000000        0x0 zephyr/drivers/gpio/libdrivers__gpio.a(gpio_nrf5.c.obj)
 .bss           0x0000000000000000        0x0 zephyr/drivers/gpio/libdrivers__gpio.a(gpio_nrf5.c.obj)
 .text.nrf_gpiote_interrupt_enable
                0x0000000000000000        0xc zephyr/drivers/gpio/libdrivers__gpio.a(gpio_nrf5.c.obj)
 .text.nrf_gpiote_interrupt_disable
                0x0000000000000000        0xc zephyr/drivers/gpio/libdrivers__gpio.a(gpio_nrf5.c.obj)
 .text.nrf_gpiote_clear_port_event
                0x0000000000000000       0x10 zephyr/drivers/gpio/libdrivers__gpio.a(gpio_nrf5.c.obj)
 .text          0x0000000000000000        0x0 zephyr/drivers/sensor/dht/libdrivers__sensor__dht.a(dht.c.obj)
 .data          0x0000000000000000        0x0 zephyr/drivers/sensor/dht/libdrivers__sensor__dht.a(dht.c.obj)
 .bss           0x0000000000000000        0x0 zephyr/drivers/sensor/dht/libdrivers__sensor__dht.a(dht.c.obj)
 .text          0x0000000000000000        0x0 zephyr/drivers/entropy/libdrivers__entropy.a(entropy_nrf5.c.obj)
 .data          0x0000000000000000        0x0 zephyr/drivers/entropy/libdrivers__entropy.a(entropy_nrf5.c.obj)
 .bss           0x0000000000000000        0x0 zephyr/drivers/entropy/libdrivers__entropy.a(entropy_nrf5.c.obj)
 .text          0x0000000000000000        0x0 zephyr/kernel/libkernel.a(device.c.obj)
 .data          0x0000000000000000        0x0 zephyr/kernel/libkernel.a(device.c.obj)
 .bss           0x0000000000000000        0x0 zephyr/kernel/libkernel.a(device.c.obj)
 .text.device_busy_set
                0x0000000000000000        0x2 zephyr/kernel/libkernel.a(device.c.obj)
 .text.device_busy_clear
                0x0000000000000000        0x2 zephyr/kernel/libkernel.a(device.c.obj)
 .text          0x0000000000000000        0x0 zephyr/kernel/libkernel.a(errno.c.obj)
 .data          0x0000000000000000        0x0 zephyr/kernel/libkernel.a(errno.c.obj)
 .bss           0x0000000000000000        0x0 zephyr/kernel/libkernel.a(errno.c.obj)
 .text._impl_z_errno
                0x0000000000000000        0xc zephyr/kernel/libkernel.a(errno.c.obj)
 .text          0x0000000000000000        0x0 zephyr/kernel/libkernel.a(idle.c.obj)
 .data          0x0000000000000000        0x0 zephyr/kernel/libkernel.a(idle.c.obj)
 .bss           0x0000000000000000        0x0 zephyr/kernel/libkernel.a(idle.c.obj)
 COMMON         0x0000000000000000        0x1 zephyr/kernel/libkernel.a(idle.c.obj)
 .text          0x0000000000000000        0x0 zephyr/kernel/libkernel.a(init.c.obj)
 .data          0x0000000000000000        0x0 zephyr/kernel/libkernel.a(init.c.obj)
 .bss           0x0000000000000000        0x0 zephyr/kernel/libkernel.a(init.c.obj)
 .text.k_call_stacks_analyze
                0x0000000000000000        0x2 zephyr/kernel/libkernel.a(init.c.obj)
 .text.main     0x0000000000000000        0x2 zephyr/kernel/libkernel.a(init.c.obj)
 .text.z_early_boot_rand32_get
                0x0000000000000000       0x48 zephyr/kernel/libkernel.a(init.c.obj)
 .rodata._main_thread
                0x0000000000000000        0x4 zephyr/kernel/libkernel.a(init.c.obj)
 .rodata.z_early_boot_rand32_get.str1.1
                0x0000000000000000        0xa zephyr/kernel/libkernel.a(init.c.obj)
 .text          0x0000000000000000        0x0 zephyr/kernel/libkernel.a(mempool.c.obj)
 .data          0x0000000000000000        0x0 zephyr/kernel/libkernel.a(mempool.c.obj)
 .bss           0x0000000000000000        0x0 zephyr/kernel/libkernel.a(mempool.c.obj)
 .text.k_mem_pool_free
                0x0000000000000000        0x6 zephyr/kernel/libkernel.a(mempool.c.obj)
 .text          0x0000000000000000        0x0 zephyr/kernel/libkernel.a(mutex.c.obj)
 .data          0x0000000000000000        0x0 zephyr/kernel/libkernel.a(mutex.c.obj)
 .bss           0x0000000000000000        0x0 zephyr/kernel/libkernel.a(mutex.c.obj)
 .text._impl_k_mutex_init
                0x0000000000000000        0xc zephyr/kernel/libkernel.a(mutex.c.obj)
 .text._impl_k_mutex_lock
                0x0000000000000000       0xcc zephyr/kernel/libkernel.a(mutex.c.obj)
 .text._impl_k_mutex_unlock
                0x0000000000000000       0x74 zephyr/kernel/libkernel.a(mutex.c.obj)
 .debug_info    0x0000000000000000      0xe8a zephyr/kernel/libkernel.a(mutex.c.obj)
 .debug_abbrev  0x0000000000000000      0x35b zephyr/kernel/libkernel.a(mutex.c.obj)
 .debug_loc     0x0000000000000000      0x245 zephyr/kernel/libkernel.a(mutex.c.obj)
 .debug_aranges
                0x0000000000000000       0x30 zephyr/kernel/libkernel.a(mutex.c.obj)
 .debug_ranges  0x0000000000000000       0x50 zephyr/kernel/libkernel.a(mutex.c.obj)
 .debug_line    0x0000000000000000      0x4d1 zephyr/kernel/libkernel.a(mutex.c.obj)
 .debug_str     0x0000000000000000      0x94a zephyr/kernel/libkernel.a(mutex.c.obj)
 .comment       0x0000000000000000       0x80 zephyr/kernel/libkernel.a(mutex.c.obj)
 .debug_frame   0x0000000000000000       0x64 zephyr/kernel/libkernel.a(mutex.c.obj)
 .ARM.attributes
                0x0000000000000000       0x33 zephyr/kernel/libkernel.a(mutex.c.obj)
 .text          0x0000000000000000        0x0 zephyr/kernel/libkernel.a(queue.c.obj)
 .data          0x0000000000000000        0x0 zephyr/kernel/libkernel.a(queue.c.obj)
 .bss           0x0000000000000000        0x0 zephyr/kernel/libkernel.a(queue.c.obj)
 .text._impl_k_queue_cancel_wait
                0x0000000000000000       0x20 zephyr/kernel/libkernel.a(queue.c.obj)
 .text.k_queue_insert
                0x0000000000000000        0x6 zephyr/kernel/libkernel.a(queue.c.obj)
 .text._impl_k_queue_alloc_append
                0x0000000000000000        0xa zephyr/kernel/libkernel.a(queue.c.obj)
 .text._impl_k_queue_alloc_prepend
                0x0000000000000000        0xa zephyr/kernel/libkernel.a(queue.c.obj)
 .text.k_queue_merge_slist
                0x0000000000000000       0x14 zephyr/kernel/libkernel.a(queue.c.obj)
 .text          0x0000000000000000        0x0 zephyr/kernel/libkernel.a(sched.c.obj)
 .data          0x0000000000000000        0x0 zephyr/kernel/libkernel.a(sched.c.obj)
 .bss           0x0000000000000000        0x0 zephyr/kernel/libkernel.a(sched.c.obj)
 .text.k_sched_lock
                0x0000000000000000       0x1c zephyr/kernel/libkernel.a(sched.c.obj)
 .text._pend_thread
                0x0000000000000000        0x4 zephyr/kernel/libkernel.a(sched.c.obj)
 .text._thread_priority_set
                0x0000000000000000       0x58 zephyr/kernel/libkernel.a(sched.c.obj)
 .text._priq_dumb_remove
                0x0000000000000000        0x6 zephyr/kernel/libkernel.a(sched.c.obj)
 .text._priq_dumb_best
                0x0000000000000000        0xc zephyr/kernel/libkernel.a(sched.c.obj)
 .text._priq_rb_lessthan
                0x0000000000000000       0x24 zephyr/kernel/libkernel.a(sched.c.obj)
 .text._priq_rb_add
                0x0000000000000000       0x5c zephyr/kernel/libkernel.a(sched.c.obj)
 .text._priq_rb_remove
                0x0000000000000000       0x10 zephyr/kernel/libkernel.a(sched.c.obj)
 .text._priq_rb_best
                0x0000000000000000        0x6 zephyr/kernel/libkernel.a(sched.c.obj)
 .text._priq_mq_add
                0x0000000000000000       0x36 zephyr/kernel/libkernel.a(sched.c.obj)
 .text._priq_mq_remove
                0x0000000000000000       0x30 zephyr/kernel/libkernel.a(sched.c.obj)
 .text._priq_mq_best
                0x0000000000000000       0x20 zephyr/kernel/libkernel.a(sched.c.obj)
 .text.k_sched_time_slice_set
                0x0000000000000000       0x1c zephyr/kernel/libkernel.a(sched.c.obj)
 .text._impl_k_thread_priority_get
                0x0000000000000000        0x6 zephyr/kernel/libkernel.a(sched.c.obj)
 .text._impl_k_thread_priority_set
                0x0000000000000000        0x4 zephyr/kernel/libkernel.a(sched.c.obj)
 .text._impl_k_wakeup
                0x0000000000000000       0x4c zephyr/kernel/libkernel.a(sched.c.obj)
 .text._impl_k_is_preempt_thread
                0x0000000000000000       0x30 zephyr/kernel/libkernel.a(sched.c.obj)
 .text          0x0000000000000000        0x0 zephyr/kernel/libkernel.a(sem.c.obj)
 .data          0x0000000000000000        0x0 zephyr/kernel/libkernel.a(sem.c.obj)
 .bss           0x0000000000000000        0x0 zephyr/kernel/libkernel.a(sem.c.obj)
 .text._sem_give_non_preemptible
                0x0000000000000000       0x26 zephyr/kernel/libkernel.a(sem.c.obj)
 .text          0x0000000000000000        0x0 zephyr/kernel/libkernel.a(sys_clock.c.obj)
 .data          0x0000000000000000        0x0 zephyr/kernel/libkernel.a(sys_clock.c.obj)
 .bss           0x0000000000000000        0x0 zephyr/kernel/libkernel.a(sys_clock.c.obj)
 .text._tick_get_32
                0x0000000000000000        0xc zephyr/kernel/libkernel.a(sys_clock.c.obj)
 .text._impl_k_uptime_get
                0x0000000000000000       0x2c zephyr/kernel/libkernel.a(sys_clock.c.obj)
 .text.k_uptime_delta
                0x0000000000000000       0x20 zephyr/kernel/libkernel.a(sys_clock.c.obj)
 .text.k_uptime_delta_32
                0x0000000000000000        0x8 zephyr/kernel/libkernel.a(sys_clock.c.obj)
 .data.sys_clock_us_per_tick
                0x0000000000000000        0x4 zephyr/kernel/libkernel.a(sys_clock.c.obj)
 .text          0x0000000000000000        0x0 zephyr/kernel/libkernel.a(system_work_q.c.obj)
 .data          0x0000000000000000        0x0 zephyr/kernel/libkernel.a(system_work_q.c.obj)
 .bss           0x0000000000000000        0x0 zephyr/kernel/libkernel.a(system_work_q.c.obj)
 .text          0x0000000000000000        0x0 zephyr/kernel/libkernel.a(thread.c.obj)
 .data          0x0000000000000000        0x0 zephyr/kernel/libkernel.a(thread.c.obj)
 .bss           0x0000000000000000        0x0 zephyr/kernel/libkernel.a(thread.c.obj)
 .text.k_thread_foreach
                0x0000000000000000        0x2 zephyr/kernel/libkernel.a(thread.c.obj)
 .text._thread_essential_set
                0x0000000000000000       0x14 zephyr/kernel/libkernel.a(thread.c.obj)
 .text._thread_essential_clear
                0x0000000000000000       0x14 zephyr/kernel/libkernel.a(thread.c.obj)
 .text._impl_k_thread_cancel
                0x0000000000000000       0x32 zephyr/kernel/libkernel.a(thread.c.obj)
 .text._k_thread_single_suspend
                0x0000000000000000       0x1e zephyr/kernel/libkernel.a(thread.c.obj)
 .text._impl_k_thread_suspend
                0x0000000000000000       0x34 zephyr/kernel/libkernel.a(thread.c.obj)
 .text._k_thread_single_resume
                0x0000000000000000        0xc zephyr/kernel/libkernel.a(thread.c.obj)
 .text._impl_k_thread_resume
                0x0000000000000000       0x1c zephyr/kernel/libkernel.a(thread.c.obj)
 .text.k_thread_access_grant
                0x0000000000000000        0x6 zephyr/kernel/libkernel.a(thread.c.obj)
 .text.k_thread_user_mode_enter
                0x0000000000000000       0x24 zephyr/kernel/libkernel.a(thread.c.obj)
 .text          0x0000000000000000        0x0 zephyr/kernel/libkernel.a(work_q.c.obj)
 .data          0x0000000000000000        0x0 zephyr/kernel/libkernel.a(work_q.c.obj)
 .bss           0x0000000000000000        0x0 zephyr/kernel/libkernel.a(work_q.c.obj)
 .text.k_work_submit_to_queue
                0x0000000000000000       0x30 zephyr/kernel/libkernel.a(work_q.c.obj)
 .text.work_timeout
                0x0000000000000000        0xa zephyr/kernel/libkernel.a(work_q.c.obj)
 .text.k_delayed_work_init
                0x0000000000000000       0x20 zephyr/kernel/libkernel.a(work_q.c.obj)
 .text.k_delayed_work_cancel
                0x0000000000000000       0xc4 zephyr/kernel/libkernel.a(work_q.c.obj)
 .text.k_delayed_work_submit_to_queue
                0x0000000000000000       0xd8 zephyr/kernel/libkernel.a(work_q.c.obj)
 .text          0x0000000000000000        0x0 zephyr/kernel/libkernel.a(poll.c.obj)
 .data          0x0000000000000000        0x0 zephyr/kernel/libkernel.a(poll.c.obj)
 .bss           0x0000000000000000        0x0 zephyr/kernel/libkernel.a(poll.c.obj)
 .text._impl_k_poll_signal_init
                0x0000000000000000        0xa zephyr/kernel/libkernel.a(poll.c.obj)
 .text._impl_k_poll_signal_check
                0x0000000000000000        0xa zephyr/kernel/libkernel.a(poll.c.obj)
 .text._impl_k_poll_signal
                0x0000000000000000       0x40 zephyr/kernel/libkernel.a(poll.c.obj)
 .text          0x0000000000000000        0x0 zephyr/CMakeFiles/offsets.dir/arch/arm/core/offsets/offsets.c.obj
 .data          0x0000000000000000        0x0 zephyr/CMakeFiles/offsets.dir/arch/arm/core/offsets/offsets.c.obj
 .bss           0x0000000000000000        0x0 zephyr/CMakeFiles/offsets.dir/arch/arm/core/offsets/offsets.c.obj
 .data          0x0000000000000000        0x0 /home/mark/cs7ns2/gcc-arm-none-eabi/bin/../lib/gcc/arm-none-eabi/7.3.1/thumb/v7e-m/libgcc.a(_aeabi_ldivmod.o)
 .bss           0x0000000000000000        0x0 /home/mark/cs7ns2/gcc-arm-none-eabi/bin/../lib/gcc/arm-none-eabi/7.3.1/thumb/v7e-m/libgcc.a(_aeabi_ldivmod.o)
 .data          0x0000000000000000        0x0 /home/mark/cs7ns2/gcc-arm-none-eabi/bin/../lib/gcc/arm-none-eabi/7.3.1/thumb/v7e-m/libgcc.a(_aeabi_uldivmod.o)
 .bss           0x0000000000000000        0x0 /home/mark/cs7ns2/gcc-arm-none-eabi/bin/../lib/gcc/arm-none-eabi/7.3.1/thumb/v7e-m/libgcc.a(_aeabi_uldivmod.o)
 .data          0x0000000000000000        0x0 /home/mark/cs7ns2/gcc-arm-none-eabi/bin/../lib/gcc/arm-none-eabi/7.3.1/thumb/v7e-m/libgcc.a(_popcountsi2.o)
 .bss           0x0000000000000000        0x0 /home/mark/cs7ns2/gcc-arm-none-eabi/bin/../lib/gcc/arm-none-eabi/7.3.1/thumb/v7e-m/libgcc.a(_popcountsi2.o)
 .data          0x0000000000000000        0x0 /home/mark/cs7ns2/gcc-arm-none-eabi/bin/../lib/gcc/arm-none-eabi/7.3.1/thumb/v7e-m/libgcc.a(_udivmoddi4.o)
 .bss           0x0000000000000000        0x0 /home/mark/cs7ns2/gcc-arm-none-eabi/bin/../lib/gcc/arm-none-eabi/7.3.1/thumb/v7e-m/libgcc.a(_udivmoddi4.o)
 .ARM.extab     0x0000000000000000        0x0 /home/mark/cs7ns2/gcc-arm-none-eabi/bin/../lib/gcc/arm-none-eabi/7.3.1/thumb/v7e-m/libgcc.a(_udivmoddi4.o)
 .data          0x0000000000000000        0x0 /home/mark/cs7ns2/gcc-arm-none-eabi/bin/../lib/gcc/arm-none-eabi/7.3.1/thumb/v7e-m/libgcc.a(_dvmd_tls.o)
 .bss           0x0000000000000000        0x0 /home/mark/cs7ns2/gcc-arm-none-eabi/bin/../lib/gcc/arm-none-eabi/7.3.1/thumb/v7e-m/libgcc.a(_dvmd_tls.o)

Memory Configuration

Name             Origin             Length             Attributes
FLASH            0x0000000000000000 0x0000000000080000 xr
SRAM             0x0000000020000000 0x0000000000010000 xw
IDT_LIST         0x0000000020010000 0x0000000000000800 xw
*default*        0x0000000000000000 0xffffffffffffffff

Linker script and memory map

LOAD zephyr/CMakeFiles/kernel_elf.dir/misc/empty_file.c.obj
LOAD zephyr/CMakeFiles/kernel_elf.dir/isr_tables.c.obj
LOAD libapp.a
LOAD zephyr/libzephyr.a
LOAD zephyr/arch/arm/core/libarch__arm__core.a
LOAD zephyr/arch/arm/core/cortex_m/libarch__arm__core__cortex_m.a
LOAD zephyr/arch/arm/core/cortex_m/mpu/libarch__arm__core__cortex_m__mpu.a
LOAD zephyr/lib/libc/minimal/liblib__libc__minimal.a
LOAD zephyr/subsys/bluetooth/common/libsubsys__bluetooth__common.a
LOAD zephyr/subsys/bluetooth/host/libsubsys__bluetooth__host.a
LOAD zephyr/subsys/bluetooth/controller/libsubsys__bluetooth__controller.a
LOAD zephyr/subsys/net/libsubsys__net.a
LOAD zephyr/drivers/gpio/libdrivers__gpio.a
LOAD zephyr/drivers/sensor/dht/libdrivers__sensor__dht.a
LOAD zephyr/drivers/entropy/libdrivers__entropy.a
LOAD zephyr/kernel/libkernel.a
LOAD zephyr/CMakeFiles/offsets.dir/arch/arm/core/offsets/offsets.c.obj
LOAD /home/mark/cs7ns2/gcc-arm-none-eabi/bin/../lib/gcc/arm-none-eabi/7.3.1/thumb/v7e-m/libgcc.a
                0x0000000000000000                _image_rom_start = 0x0

text            0x0000000000000000     0xacbe
                0x0000000000000000                . = 0x0
                0x0000000000000000                _vector_start = .
 *(.exc_vector_table)
 *(.exc_vector_table.*)
 .exc_vector_table._vector_table_section
                0x0000000000000000       0x40 zephyr/arch/arm/core/cortex_m/libarch__arm__core__cortex_m.a(vector_table.S.obj)
                0x0000000000000000                _vector_table
 *(.gnu.linkonce.irq_vector_table)
 .gnu.linkonce.irq_vector_table
                0x0000000000000040       0x9c zephyr/CMakeFiles/kernel_elf.dir/isr_tables.c.obj
                0x0000000000000040                _irq_vector_table
 *(.openocd_dbg)
 *(.openocd_dbg.*)
 *(.kinetis_flash_config)
 *(.kinetis_flash_config.*)
 *(.gnu.linkonce.sw_isr_table)
 .gnu.linkonce.sw_isr_table
                0x00000000000000dc      0x138 zephyr/CMakeFiles/kernel_elf.dir/isr_tables.c.obj
                0x00000000000000dc                _sw_isr_table
                0x0000000000000214                _vector_end = .
                0x0000000000000214                _image_text_start = .
 *(.text)
 .text          0x0000000000000214       0xa0 /home/mark/cs7ns2/gcc-arm-none-eabi/bin/../lib/gcc/arm-none-eabi/7.3.1/thumb/v7e-m/libgcc.a(_aeabi_ldivmod.o)
                0x0000000000000214                __aeabi_ldivmod
 .text          0x00000000000002b4       0x30 /home/mark/cs7ns2/gcc-arm-none-eabi/bin/../lib/gcc/arm-none-eabi/7.3.1/thumb/v7e-m/libgcc.a(_aeabi_uldivmod.o)
                0x00000000000002b4                __aeabi_uldivmod
 .text          0x00000000000002e4       0x28 /home/mark/cs7ns2/gcc-arm-none-eabi/bin/../lib/gcc/arm-none-eabi/7.3.1/thumb/v7e-m/libgcc.a(_popcountsi2.o)
                0x00000000000002e4                __popcountsi2
 .text          0x000000000000030c      0x2cc /home/mark/cs7ns2/gcc-arm-none-eabi/bin/../lib/gcc/arm-none-eabi/7.3.1/thumb/v7e-m/libgcc.a(_udivmoddi4.o)
                0x000000000000030c                __udivmoddi4
 .text          0x00000000000005d8        0x4 /home/mark/cs7ns2/gcc-arm-none-eabi/bin/../lib/gcc/arm-none-eabi/7.3.1/thumb/v7e-m/libgcc.a(_dvmd_tls.o)
                0x00000000000005d8                __aeabi_ldiv0
                0x00000000000005d8                __aeabi_idiv0
 *(.text.*)
 .text.main     0x00000000000005dc       0x74 libapp.a(main.c.obj)
                0x00000000000005dc                main
 .text.nordicsemi_nrf52_init
                0x0000000000000650       0x3c zephyr/libzephyr.a(soc.c.obj)
 .text._thread_entry
                0x000000000000068c       0x14 zephyr/libzephyr.a(thread_entry.c.obj)
                0x000000000000068c                _thread_entry
 .text.get_bit_ptr
                0x00000000000006a0       0x28 zephyr/libzephyr.a(mempool.c.obj)
 .text.set_free_bit
                0x00000000000006c8       0x1c zephyr/libzephyr.a(mempool.c.obj)
 .text.clear_free_bit
                0x00000000000006e4       0x1e zephyr/libzephyr.a(mempool.c.obj)
 .text._sys_mem_pool_base_init
                0x0000000000000702       0x92 zephyr/libzephyr.a(mempool.c.obj)
                0x0000000000000702                _sys_mem_pool_base_init
 .text._sys_mem_pool_block_alloc
                0x0000000000000794      0x168 zephyr/libzephyr.a(mempool.c.obj)
                0x0000000000000794                _sys_mem_pool_block_alloc
 .text._sys_mem_pool_block_free
                0x00000000000008fc      0x118 zephyr/libzephyr.a(mempool.c.obj)
                0x00000000000008fc                _sys_mem_pool_block_free
 .text._nop_char_out
                0x0000000000000a14        0x4 zephyr/libzephyr.a(printk.c.obj)
 .text.char_out
                0x0000000000000a18       0x10 zephyr/libzephyr.a(printk.c.obj)
 .text._printk_dec_ulong
                0x0000000000000a28       0xa0 zephyr/libzephyr.a(printk.c.obj)
 .text.str_out  0x0000000000000ac8       0x26 zephyr/libzephyr.a(printk.c.obj)
 *fill*         0x0000000000000aee        0x2 
 .text.__printk_hook_install
                0x0000000000000af0        0xc zephyr/libzephyr.a(printk.c.obj)
                0x0000000000000af0                __printk_hook_install
 .text._vprintk
                0x0000000000000afc      0x262 zephyr/libzephyr.a(printk.c.obj)
                0x0000000000000afc                _vprintk
 *fill*         0x0000000000000d5e        0x2 
 .text.vprintk  0x0000000000000d60       0x20 zephyr/libzephyr.a(printk.c.obj)
                0x0000000000000d60                vprintk
 .text.printk   0x0000000000000d80       0x1a zephyr/libzephyr.a(printk.c.obj)
                0x0000000000000d80                printk
 *fill*         0x0000000000000d9a        0x2 
 .text.snprintk
                0x0000000000000d9c       0x38 zephyr/libzephyr.a(printk.c.obj)
                0x0000000000000d9c                snprintk
 .text._ConfigAbsSyms
                0x0000000000000dd4        0x2 zephyr/libzephyr.a(configs.c.obj)
                0x0000000000000dd4                _ConfigAbsSyms
 *fill*         0x0000000000000dd6        0x2 
 .text.errata_12
                0x0000000000000dd8       0x40 zephyr/libzephyr.a(system_nrf52.c.obj)
 .text.errata_16
                0x0000000000000e18       0x34 zephyr/libzephyr.a(system_nrf52.c.obj)
 .text.SystemInit
                0x0000000000000e4c      0x248 zephyr/libzephyr.a(system_nrf52.c.obj)
                0x0000000000000e4c                SystemInit
 .text._GetAvailWriteSpace
                0x0000000000001094       0x1c zephyr/libzephyr.a(SEGGER_RTT.c.obj)
 .text._WriteNoCheck
                0x00000000000010b0       0x3a zephyr/libzephyr.a(SEGGER_RTT.c.obj)
 .text._WriteBlocking
                0x00000000000010ea       0x52 zephyr/libzephyr.a(SEGGER_RTT.c.obj)
 .text._DoInit  0x000000000000113c       0x60 zephyr/libzephyr.a(SEGGER_RTT.c.obj)
 .text.SEGGER_RTT_WriteNoLock
                0x000000000000119c       0x68 zephyr/libzephyr.a(SEGGER_RTT.c.obj)
                0x000000000000119c                SEGGER_RTT_WriteNoLock
 .text.SEGGER_RTT_Init
                0x0000000000001204        0x4 zephyr/libzephyr.a(SEGGER_RTT.c.obj)
                0x0000000000001204                SEGGER_RTT_Init
 .text.sys_rand32_get
                0x0000000000001208       0x50 zephyr/libzephyr.a(rand32_entropy_device.c.obj)
                0x0000000000001208                sys_rand32_get
 .text.rtt_console_init
                0x0000000000001258       0x1c zephyr/libzephyr.a(rtt_console.c.obj)
 .text.rtt_console_out
                0x0000000000001274       0x5c zephyr/libzephyr.a(rtt_console.c.obj)
 .text._m16src_stop
                0x00000000000012d0       0x60 zephyr/libzephyr.a(nrf5_power_clock.c.obj)
 .text._clock_control_init
                0x0000000000001330       0x16 zephyr/libzephyr.a(nrf5_power_clock.c.obj)
 *fill*         0x0000000000001346        0x2 
 .text._m16src_start
                0x0000000000001348       0xb4 zephyr/libzephyr.a(nrf5_power_clock.c.obj)
 .text._k32src_start
                0x00000000000013fc       0x90 zephyr/libzephyr.a(nrf5_power_clock.c.obj)
 .text._power_clock_isr
                0x000000000000148c       0x9c zephyr/libzephyr.a(nrf5_power_clock.c.obj)
 .text.rtc_compare_set
                0x0000000000001528       0x30 zephyr/libzephyr.a(nrf_rtc_timer.c.obj)
 .text.rtc_announce_set_next
                0x0000000000001558       0x5c zephyr/libzephyr.a(nrf_rtc_timer.c.obj)
 .text.rtc1_nrf5_isr
                0x00000000000015b4       0x10 zephyr/libzephyr.a(nrf_rtc_timer.c.obj)
                0x00000000000015b4                rtc1_nrf5_isr
 .text._timer_idle_enter
                0x00000000000015c4       0x34 zephyr/libzephyr.a(nrf_rtc_timer.c.obj)
                0x00000000000015c4                _timer_idle_enter
 .text._timer_idle_exit
                0x00000000000015f8       0x2c zephyr/libzephyr.a(nrf_rtc_timer.c.obj)
                0x00000000000015f8                _timer_idle_exit
 .text._sys_clock_driver_init
                0x0000000000001624       0x84 zephyr/libzephyr.a(nrf_rtc_timer.c.obj)
                0x0000000000001624                _sys_clock_driver_init
 .text._timer_cycle_get_32
                0x00000000000016a8       0x38 zephyr/libzephyr.a(nrf_rtc_timer.c.obj)
                0x00000000000016a8                _timer_cycle_get_32
 .text._HandlerModeExit
                0x00000000000016e0       0x28 zephyr/arch/arm/core/libarch__arm__core.a(exc_exit.S.obj)
                0x00000000000016e0                _ExcExit
                0x00000000000016e0                _IntExit
 .text._IntLibInit
                0x0000000000001708       0x18 zephyr/arch/arm/core/libarch__arm__core.a(irq_init.c.obj)
                0x0000000000001708                _IntLibInit
 .text.__swap   0x0000000000001720       0x30 zephyr/arch/arm/core/libarch__arm__core.a(swap.c.obj)
                0x0000000000001720                __swap
 .text.__pendsv
                0x0000000000001750       0x44 zephyr/arch/arm/core/libarch__arm__core.a(swap_helper.S.obj)
                0x0000000000001750                __pendsv
 .text.__svc    0x0000000000001794       0x24 zephyr/arch/arm/core/libarch__arm__core.a(swap_helper.S.obj)
                0x0000000000001794                __svc
 .text._MpuFault.isra.2
                0x00000000000017b8       0x88 zephyr/arch/arm/core/libarch__arm__core.a(fault.c.obj)
 .text._BusFault.isra.3
                0x0000000000001840       0x94 zephyr/arch/arm/core/libarch__arm__core.a(fault.c.obj)
 .text._UsageFault.isra.5
                0x00000000000018d4       0x88 zephyr/arch/arm/core/libarch__arm__core.a(fault.c.obj)
 .text._Fault   0x000000000000195c       0xcc zephyr/arch/arm/core/libarch__arm__core.a(fault.c.obj)
                0x000000000000195c                _Fault
 .text._FaultInit
                0x0000000000001a28       0x10 zephyr/arch/arm/core/libarch__arm__core.a(fault.c.obj)
                0x0000000000001a28                _FaultInit
 .text._arch_irq_enable
                0x0000000000001a38       0x20 zephyr/arch/arm/core/libarch__arm__core.a(irq_manage.c.obj)
                0x0000000000001a38                _arch_irq_enable
 .text._arch_irq_disable
                0x0000000000001a58       0x28 zephyr/arch/arm/core/libarch__arm__core.a(irq_manage.c.obj)
                0x0000000000001a58                _arch_irq_disable
 .text._arch_irq_is_enabled
                0x0000000000001a80       0x1c zephyr/arch/arm/core/libarch__arm__core.a(irq_manage.c.obj)
                0x0000000000001a80                _arch_irq_is_enabled
 .text._irq_priority_set
                0x0000000000001a9c       0x30 zephyr/arch/arm/core/libarch__arm__core.a(irq_manage.c.obj)
                0x0000000000001a9c                _irq_priority_set
 .text._irq_spurious
                0x0000000000001acc        0x4 zephyr/arch/arm/core/libarch__arm__core.a(irq_manage.c.obj)
                0x0000000000001acc                _irq_spurious
 .text._arch_isr_direct_pm
                0x0000000000001ad0       0x1c zephyr/arch/arm/core/libarch__arm__core.a(irq_manage.c.obj)
                0x0000000000001ad0                _arch_isr_direct_pm
 .text._new_thread
                0x0000000000001aec       0x50 zephyr/arch/arm/core/libarch__arm__core.a(thread.c.obj)
                0x0000000000001aec                _new_thread
 .text._CpuIdleInit
                0x0000000000001b3c        0xc zephyr/arch/arm/core/libarch__arm__core.a(cpu_idle.S.obj)
                0x0000000000001b3c                _CpuIdleInit
 .text.k_cpu_idle
                0x0000000000001b48        0xc zephyr/arch/arm/core/libarch__arm__core.a(cpu_idle.S.obj)
                0x0000000000001b48                k_cpu_idle
 .text.__fault  0x0000000000001b54       0x28 zephyr/arch/arm/core/libarch__arm__core.a(fault_s.S.obj)
                0x0000000000001b54                __usage_fault
                0x0000000000001b54                __reserved
                0x0000000000001b54                __bus_fault
                0x0000000000001b54                __debug_monitor
                0x0000000000001b54                __mpu_fault
                0x0000000000001b54                __hard_fault
 .text._NanoFatalErrorHandler
                0x0000000000001b7c       0x64 zephyr/arch/arm/core/libarch__arm__core.a(fatal.c.obj)
                0x0000000000001b7c                _NanoFatalErrorHandler
 .text._do_kernel_oops
                0x0000000000001be0        0x8 zephyr/arch/arm/core/libarch__arm__core.a(fatal.c.obj)
                0x0000000000001be0                _do_kernel_oops
 .text._SysFatalErrorHandler
                0x0000000000001be8       0x58 zephyr/arch/arm/core/libarch__arm__core.a(sys_fatal_error_handler.c.obj)
                0x0000000000001be8                _SysFatalErrorHandler
 .text._impl_k_thread_abort
                0x0000000000001c40       0x4c zephyr/arch/arm/core/libarch__arm__core.a(thread_abort.c.obj)
                0x0000000000001c40                _impl_k_thread_abort
 .text._isr_wrapper
                0x0000000000001c8c       0x3c zephyr/arch/arm/core/libarch__arm__core.a(isr_wrapper.S.obj)
                0x0000000000001c8c                _isr_wrapper
 .text._reset_section
                0x0000000000001cc8       0x24 zephyr/arch/arm/core/cortex_m/libarch__arm__core__cortex_m.a(reset.S.obj)
                0x0000000000001cc8                __reset
                0x0000000000001cc8                __start
 .text._SysNmiOnReset
                0x0000000000001cec        0x8 zephyr/arch/arm/core/cortex_m/libarch__arm__core__cortex_m.a(nmi_on_reset.S.obj)
                0x0000000000001cec                _SysNmiOnReset
 .text._PrepC   0x0000000000001cf4       0x28 zephyr/arch/arm/core/cortex_m/libarch__arm__core__cortex_m.a(prep_c.c.obj)
                0x0000000000001cf4                _PrepC
 .text.__nmi    0x0000000000001d1c        0xe zephyr/arch/arm/core/cortex_m/libarch__arm__core__cortex_m.a(nmi.c.obj)
                0x0000000000001d1c                __nmi
 *fill*         0x0000000000001d2a        0x2 
 .text.arm_core_mpu_enable
                0x0000000000001d2c       0x14 zephyr/arch/arm/core/cortex_m/mpu/libarch__arm__core__cortex_m__mpu.a(arm_mpu.c.obj)
                0x0000000000001d2c                arm_core_mpu_enable
 .text.arm_mpu_init
                0x0000000000001d40       0x50 zephyr/arch/arm/core/cortex_m/mpu/libarch__arm__core__cortex_m__mpu.a(arm_mpu.c.obj)
 .text.strcpy   0x0000000000001d90       0x14 zephyr/lib/libc/minimal/liblib__libc__minimal.a(string.c.obj)
                0x0000000000001d90                strcpy
 .text.strcmp   0x0000000000001da4       0x1a zephyr/lib/libc/minimal/liblib__libc__minimal.a(string.c.obj)
                0x0000000000001da4                strcmp
 .text.memcmp   0x0000000000001dbe       0x20 zephyr/lib/libc/minimal/liblib__libc__minimal.a(string.c.obj)
                0x0000000000001dbe                memcmp
 .text.memcpy   0x0000000000001dde       0x5a zephyr/lib/libc/minimal/liblib__libc__minimal.a(string.c.obj)
                0x0000000000001dde                memcpy
 .text.memset   0x0000000000001e38       0x42 zephyr/lib/libc/minimal/liblib__libc__minimal.a(string.c.obj)
                0x0000000000001e38                memset
 .text._stdout_hook_default
                0x0000000000001e7a        0x6 zephyr/lib/libc/minimal/liblib__libc__minimal.a(stdout_console.c.obj)
 .text.__stdout_hook_install
                0x0000000000001e80        0xc zephyr/lib/libc/minimal/liblib__libc__minimal.a(stdout_console.c.obj)
                0x0000000000001e80                __stdout_hook_install
 .text.atomic_or
                0x0000000000001e8c       0x1e zephyr/subsys/bluetooth/host/libsubsys__bluetooth__host.a(hci_core.c.obj)
 *fill*         0x0000000000001eaa        0x2 
 .text.hci_cmd_done.isra.9
                0x0000000000001eac       0x50 zephyr/subsys/bluetooth/host/libsubsys__bluetooth__host.a(hci_core.c.obj)
 .text.atomic_and.constprop.23
                0x0000000000001efc       0x24 zephyr/subsys/bluetooth/host/libsubsys__bluetooth__host.a(hci_core.c.obj)
 .text.atomic_test_bit.constprop.22
                0x0000000000001f20       0x1c zephyr/subsys/bluetooth/host/libsubsys__bluetooth__host.a(hci_core.c.obj)
 .text.bt_hci_cmd_create
                0x0000000000001f3c       0x60 zephyr/subsys/bluetooth/host/libsubsys__bluetooth__host.a(hci_core.c.obj)
                0x0000000000001f3c                bt_hci_cmd_create
 .text.bt_hci_cmd_send_sync
                0x0000000000001f9c       0x7c zephyr/subsys/bluetooth/host/libsubsys__bluetooth__host.a(hci_core.c.obj)
                0x0000000000001f9c                bt_hci_cmd_send_sync
 .text.set_random_address
                0x0000000000002018       0x5c zephyr/subsys/bluetooth/host/libsubsys__bluetooth__host.a(hci_core.c.obj)
 .text.bt_addr_le_create_static
                0x0000000000002074       0x1c zephyr/subsys/bluetooth/host/libsubsys__bluetooth__host.a(hci_core.c.obj)
                0x0000000000002074                bt_addr_le_create_static
 .text.bt_set_static_addr
                0x0000000000002090       0x38 zephyr/subsys/bluetooth/host/libsubsys__bluetooth__host.a(hci_core.c.obj)
                0x0000000000002090                bt_set_static_addr
 .text.hci_init
                0x00000000000020c8      0x350 zephyr/subsys/bluetooth/host/libsubsys__bluetooth__host.a(hci_core.c.obj)
 .text.init_work
                0x0000000000002418       0x2c zephyr/subsys/bluetooth/host/libsubsys__bluetooth__host.a(hci_core.c.obj)
 .text.bt_recv  0x0000000000002444       0xc4 zephyr/subsys/bluetooth/host/libsubsys__bluetooth__host.a(hci_core.c.obj)
                0x0000000000002444                bt_recv
 .text.bt_recv_prio
                0x0000000000002508       0x8c zephyr/subsys/bluetooth/host/libsubsys__bluetooth__host.a(hci_core.c.obj)
                0x0000000000002508                bt_recv_prio
 .text.bt_hci_driver_register
                0x0000000000002594       0x28 zephyr/subsys/bluetooth/host/libsubsys__bluetooth__host.a(hci_core.c.obj)
                0x0000000000002594                bt_hci_driver_register
 .text.bt_buf_get_rx
                0x00000000000025bc       0x20 zephyr/subsys/bluetooth/host/libsubsys__bluetooth__host.a(hci_core.c.obj)
                0x00000000000025bc                bt_buf_get_rx
 .text.bt_buf_get_cmd_complete
                0x00000000000025dc       0x44 zephyr/subsys/bluetooth/host/libsubsys__bluetooth__host.a(hci_core.c.obj)
                0x00000000000025dc                bt_buf_get_cmd_complete
 .text.mem_init
                0x0000000000002620       0x48 zephyr/subsys/bluetooth/controller/libsubsys__bluetooth__controller.a(mem.c.obj)
                0x0000000000002620                mem_init
 .text.mem_acquire
                0x0000000000002668       0x32 zephyr/subsys/bluetooth/controller/libsubsys__bluetooth__controller.a(mem.c.obj)
                0x0000000000002668                mem_acquire
 .text.mem_release
                0x000000000000269a       0x2a zephyr/subsys/bluetooth/controller/libsubsys__bluetooth__controller.a(mem.c.obj)
                0x000000000000269a                mem_release
 .text.mem_get  0x00000000000026c4        0x6 zephyr/subsys/bluetooth/controller/libsubsys__bluetooth__controller.a(mem.c.obj)
                0x00000000000026c4                mem_get
 .text.mem_index_get
                0x00000000000026ca        0xa zephyr/subsys/bluetooth/controller/libsubsys__bluetooth__controller.a(mem.c.obj)
                0x00000000000026ca                mem_index_get
 .text.mem_rcopy
                0x00000000000026d4       0x1e zephyr/subsys/bluetooth/controller/libsubsys__bluetooth__controller.a(mem.c.obj)
                0x00000000000026d4                mem_rcopy
 .text.memq_init
                0x00000000000026f2        0x6 zephyr/subsys/bluetooth/controller/libsubsys__bluetooth__controller.a(memq.c.obj)
                0x00000000000026f2                memq_init
 .text.memq_enqueue
                0x00000000000026f8        0xe zephyr/subsys/bluetooth/controller/libsubsys__bluetooth__controller.a(memq.c.obj)
                0x00000000000026f8                memq_enqueue
 .text.memq_peek
                0x0000000000002706       0x10 zephyr/subsys/bluetooth/controller/libsubsys__bluetooth__controller.a(memq.c.obj)
                0x0000000000002706                memq_peek
 .text.memq_dequeue
                0x0000000000002716       0x1a zephyr/subsys/bluetooth/controller/libsubsys__bluetooth__controller.a(memq.c.obj)
                0x0000000000002716                memq_dequeue
 .text.mayfly_init
                0x0000000000002730       0x54 zephyr/subsys/bluetooth/controller/libsubsys__bluetooth__controller.a(mayfly.c.obj)
                0x0000000000002730                mayfly_init
 .text.mayfly_enable
                0x0000000000002784       0x50 zephyr/subsys/bluetooth/controller/libsubsys__bluetooth__controller.a(mayfly.c.obj)
                0x0000000000002784                mayfly_enable
 .text.mayfly_enqueue
                0x00000000000027d4       0x9c zephyr/subsys/bluetooth/controller/libsubsys__bluetooth__controller.a(mayfly.c.obj)
                0x00000000000027d4                mayfly_enqueue
 .text.mayfly_run
                0x0000000000002870      0x124 zephyr/subsys/bluetooth/controller/libsubsys__bluetooth__controller.a(mayfly.c.obj)
                0x0000000000002870                mayfly_run
 .text.util_ones_count_get
                0x0000000000002994       0x22 zephyr/subsys/bluetooth/controller/libsubsys__bluetooth__controller.a(util.c.obj)
                0x0000000000002994                util_ones_count_get
 .text.ticker_dequeue
                0x00000000000029b6       0x56 zephyr/subsys/bluetooth/controller/libsubsys__bluetooth__controller.a(ticker.c.obj)
 .text.ticks_to_expire_prep
                0x0000000000002a0c       0x3c zephyr/subsys/bluetooth/controller/libsubsys__bluetooth__controller.a(ticker.c.obj)
 .text.ticker_job_op_cb
                0x0000000000002a48       0x14 zephyr/subsys/bluetooth/controller/libsubsys__bluetooth__controller.a(ticker.c.obj)
 .text.ticker_worker
                0x0000000000002a5c       0xa8 zephyr/subsys/bluetooth/controller/libsubsys__bluetooth__controller.a(ticker.c.obj)
                0x0000000000002a5c                ticker_worker
 .text.ticker_job
                0x0000000000002b04      0x770 zephyr/subsys/bluetooth/controller/libsubsys__bluetooth__controller.a(ticker.c.obj)
                0x0000000000002b04                ticker_job
 .text.ticker_init
                0x0000000000003274       0x78 zephyr/subsys/bluetooth/controller/libsubsys__bluetooth__controller.a(ticker.c.obj)
                0x0000000000003274                ticker_init
 .text.ticker_trigger
                0x00000000000032ec       0x24 zephyr/subsys/bluetooth/controller/libsubsys__bluetooth__controller.a(ticker.c.obj)
                0x00000000000032ec                ticker_trigger
 .text.ticker_start
                0x0000000000003310       0x94 zephyr/subsys/bluetooth/controller/libsubsys__bluetooth__controller.a(ticker.c.obj)
                0x0000000000003310                ticker_start
 .text.ticker_update
                0x00000000000033a4       0x94 zephyr/subsys/bluetooth/controller/libsubsys__bluetooth__controller.a(ticker.c.obj)
                0x00000000000033a4                ticker_update
 .text.ticker_stop
                0x0000000000003438       0x74 zephyr/subsys/bluetooth/controller/libsubsys__bluetooth__controller.a(ticker.c.obj)
                0x0000000000003438                ticker_stop
 .text.ticker_next_slot_get
                0x00000000000034ac       0x7c zephyr/subsys/bluetooth/controller/libsubsys__bluetooth__controller.a(ticker.c.obj)
                0x00000000000034ac                ticker_next_slot_get
 .text.ticker_job_idle_get
                0x0000000000003528       0x74 zephyr/subsys/bluetooth/controller/libsubsys__bluetooth__controller.a(ticker.c.obj)
                0x0000000000003528                ticker_job_idle_get
 .text.ticker_job_sched
                0x000000000000359c       0x2c zephyr/subsys/bluetooth/controller/libsubsys__bluetooth__controller.a(ticker.c.obj)
                0x000000000000359c                ticker_job_sched
 .text.ticker_ticks_now_get
                0x00000000000035c8        0x4 zephyr/subsys/bluetooth/controller/libsubsys__bluetooth__controller.a(ticker.c.obj)
                0x00000000000035c8                ticker_ticks_now_get
 .text.ticker_ticks_diff_get
                0x00000000000035cc        0x8 zephyr/subsys/bluetooth/controller/libsubsys__bluetooth__controller.a(ticker.c.obj)
                0x00000000000035cc                ticker_ticks_diff_get
 .text.ll_addr_get
                0x00000000000035d4       0x34 zephyr/subsys/bluetooth/controller/libsubsys__bluetooth__controller.a(ll_addr.c.obj)
                0x00000000000035d4                ll_addr_get
 .text.ll_addr_set
                0x0000000000003608       0x38 zephyr/subsys/bluetooth/controller/libsubsys__bluetooth__controller.a(ll_addr.c.obj)
                0x0000000000003608                ll_addr_set
 .text.ll_tx_pwr_get
                0x0000000000003640        0x8 zephyr/subsys/bluetooth/controller/libsubsys__bluetooth__controller.a(ll_tx_pwr.c.obj)
                0x0000000000003640                ll_tx_pwr_get
 .text.cpu_sleep
                0x0000000000003648        0x8 zephyr/subsys/bluetooth/controller/libsubsys__bluetooth__controller.a(ctrl.c.obj)
 .text.pdu_len_cmp
                0x0000000000003650       0x3c zephyr/subsys/bluetooth/controller/libsubsys__bluetooth__controller.a(ctrl.c.obj)
 .text.ticker_if_done
                0x000000000000368c        0x4 zephyr/subsys/bluetooth/controller/libsubsys__bluetooth__controller.a(ctrl.c.obj)
 .text.mayfly_xtal_start
                0x0000000000003690       0x10 zephyr/subsys/bluetooth/controller/libsubsys__bluetooth__controller.a(ctrl.c.obj)
 .text.prepare_reduced
                0x00000000000036a0        0xc zephyr/subsys/bluetooth/controller/libsubsys__bluetooth__controller.a(ctrl.c.obj)
 .text.prepare_normal
                0x00000000000036ac        0xc zephyr/subsys/bluetooth/controller/libsubsys__bluetooth__controller.a(ctrl.c.obj)
 .text.chan_sel_remap
                0x00000000000036b8       0x36 zephyr/subsys/bluetooth/controller/libsubsys__bluetooth__controller.a(ctrl.c.obj)
 *fill*         0x00000000000036ee        0x2 
 .text.packet_rx_reserve_get
                0x00000000000036f0       0x38 zephyr/subsys/bluetooth/controller/libsubsys__bluetooth__controller.a(ctrl.c.obj)
 .text.conn_update_req
                0x0000000000003728       0x68 zephyr/subsys/bluetooth/controller/libsubsys__bluetooth__controller.a(ctrl.c.obj)
 .text.tx_cmplt_get
                0x0000000000003790       0x94 zephyr/subsys/bluetooth/controller/libsubsys__bluetooth__controller.a(ctrl.c.obj)
 .text.connection_get
                0x0000000000003824       0x2c zephyr/subsys/bluetooth/controller/libsubsys__bluetooth__controller.a(ctrl.c.obj)
 .text.role_disable
                0x0000000000003850      0x1f0 zephyr/subsys/bluetooth/controller/libsubsys__bluetooth__controller.a(ctrl.c.obj)
 .text.sched_after_mstr_free_slot_get
                0x0000000000003a40      0x124 zephyr/subsys/bluetooth/controller/libsubsys__bluetooth__controller.a(ctrl.c.obj)
 .text.isr_adv_ci_adva_check
                0x0000000000003b64       0x48 zephyr/subsys/bluetooth/controller/libsubsys__bluetooth__controller.a(ctrl.c.obj)
 .text.rx_fc_lock
                0x0000000000003bac       0x34 zephyr/subsys/bluetooth/controller/libsubsys__bluetooth__controller.a(ctrl.c.obj)
 .text.ticker_success_assert.part.5
                0x0000000000003be0        0xc zephyr/subsys/bluetooth/controller/libsubsys__bluetooth__controller.a(ctrl.c.obj)
 .text.ticker_success_assert
                0x0000000000003bec        0xa zephyr/subsys/bluetooth/controller/libsubsys__bluetooth__controller.a(ctrl.c.obj)
 *fill*         0x0000000000003bf6        0x2 
 .text.ticker_stop_adv_assert
                0x0000000000003bf8       0x30 zephyr/subsys/bluetooth/controller/libsubsys__bluetooth__controller.a(ctrl.c.obj)
 .text.ticker_stop_scan_assert
                0x0000000000003c28       0x30 zephyr/subsys/bluetooth/controller/libsubsys__bluetooth__controller.a(ctrl.c.obj)
 .text.ticker_update_adv_assert
                0x0000000000003c58       0x18 zephyr/subsys/bluetooth/controller/libsubsys__bluetooth__controller.a(ctrl.c.obj)
 .text.ticker_update_slave_assert
                0x0000000000003c70       0x18 zephyr/subsys/bluetooth/controller/libsubsys__bluetooth__controller.a(ctrl.c.obj)
 .text.ticker_job_disable
                0x0000000000003c88       0x18 zephyr/subsys/bluetooth/controller/libsubsys__bluetooth__controller.a(ctrl.c.obj)
 .text.hdr_conn_get
                0x0000000000003ca0       0x3c zephyr/subsys/bluetooth/controller/libsubsys__bluetooth__controller.a(ctrl.c.obj)
 .text.mayfly_xtal_retain.part.16
                0x0000000000003cdc       0x34 zephyr/subsys/bluetooth/controller/libsubsys__bluetooth__controller.a(ctrl.c.obj)
 .text.event_active
                0x0000000000003d10       0x1c zephyr/subsys/bluetooth/controller/libsubsys__bluetooth__controller.a(ctrl.c.obj)
 .text.event_xtal
                0x0000000000003d2c       0x1c zephyr/subsys/bluetooth/controller/libsubsys__bluetooth__controller.a(ctrl.c.obj)
 .text.mayfly_radio_active
                0x0000000000003d48       0x30 zephyr/subsys/bluetooth/controller/libsubsys__bluetooth__controller.a(ctrl.c.obj)
 .text.mayfly_radio_inactive
                0x0000000000003d78        0x6 zephyr/subsys/bluetooth/controller/libsubsys__bluetooth__controller.a(ctrl.c.obj)
 *fill*         0x0000000000003d7e        0x2 
 .text.mayfly_radio_stop
                0x0000000000003d80       0x34 zephyr/subsys/bluetooth/controller/libsubsys__bluetooth__controller.a(ctrl.c.obj)
 .text.rx_packet_set
                0x0000000000003db4       0x42 zephyr/subsys/bluetooth/controller/libsubsys__bluetooth__controller.a(ctrl.c.obj)
 *fill*         0x0000000000003df6        0x2 
 .text.pdu_node_tx_release
                0x0000000000003df8       0x48 zephyr/subsys/bluetooth/controller/libsubsys__bluetooth__controller.a(ctrl.c.obj)
 .text.packet_tx_enqueue
                0x0000000000003e40       0xa0 zephyr/subsys/bluetooth/controller/libsubsys__bluetooth__controller.a(ctrl.c.obj)
 .text.connection_release
                0x0000000000003ee0      0x108 zephyr/subsys/bluetooth/controller/libsubsys__bluetooth__controller.a(ctrl.c.obj)
 .text.tx_packet_set
                0x0000000000003fe8       0x40 zephyr/subsys/bluetooth/controller/libsubsys__bluetooth__controller.a(ctrl.c.obj)
 .text.chan_set
                0x0000000000004028       0x3e zephyr/subsys/bluetooth/controller/libsubsys__bluetooth__controller.a(ctrl.c.obj)
 *fill*         0x0000000000004066        0x2 
 .text.adv_setup
                0x0000000000004068       0xb0 zephyr/subsys/bluetooth/controller/libsubsys__bluetooth__controller.a(ctrl.c.obj)
 .text.sched_after_mstr_free_offset_get
                0x0000000000004118       0x74 zephyr/subsys/bluetooth/controller/libsubsys__bluetooth__controller.a(ctrl.c.obj)
 .text.mayfly_sched_win_offset_use
                0x000000000000418c       0x2e zephyr/subsys/bluetooth/controller/libsubsys__bluetooth__controller.a(ctrl.c.obj)
 *fill*         0x00000000000041ba        0x2 
 .text.ticker_stop_adv_stop
                0x00000000000041bc      0x114 zephyr/subsys/bluetooth/controller/libsubsys__bluetooth__controller.a(ctrl.c.obj)
 .text.isr_scan_tgta_check.isra.31
                0x00000000000042d0       0x60 zephyr/subsys/bluetooth/controller/libsubsys__bluetooth__controller.a(ctrl.c.obj)
 .text.packet_rx_enqueue
                0x0000000000004330       0x60 zephyr/subsys/bluetooth/controller/libsubsys__bluetooth__controller.a(ctrl.c.obj)
 .text.mayfly_adv_stop
                0x0000000000004390       0x30 zephyr/subsys/bluetooth/controller/libsubsys__bluetooth__controller.a(ctrl.c.obj)
 .text.terminate_ind_rx_enqueue
                0x00000000000043c0       0x50 zephyr/subsys/bluetooth/controller/libsubsys__bluetooth__controller.a(ctrl.c.obj)
 .text.isr_rx_scan_report.isra.38.part.39
                0x0000000000004410        0xc zephyr/subsys/bluetooth/controller/libsubsys__bluetooth__controller.a(ctrl.c.obj)
 .text.isr_rx_scan_report.isra.38
                0x000000000000441c       0x60 zephyr/subsys/bluetooth/controller/libsubsys__bluetooth__controller.a(ctrl.c.obj)
 .text.prepare_normal_set
                0x000000000000447c       0x48 zephyr/subsys/bluetooth/controller/libsubsys__bluetooth__controller.a(ctrl.c.obj)
 .text.adv_scan_configure.constprop.49
                0x00000000000044c4       0x54 zephyr/subsys/bluetooth/controller/libsubsys__bluetooth__controller.a(ctrl.c.obj)
 .text.event_stop.constprop.50
                0x0000000000004518       0x1c zephyr/subsys/bluetooth/controller/libsubsys__bluetooth__controller.a(ctrl.c.obj)
 .text.event_common_prepare
                0x0000000000004534      0x174 zephyr/subsys/bluetooth/controller/libsubsys__bluetooth__controller.a(ctrl.c.obj)
 .text.radio_event_adv_prepare
                0x00000000000046a8       0x38 zephyr/subsys/bluetooth/controller/libsubsys__bluetooth__controller.a(ctrl.c.obj)
                0x00000000000046a8                radio_event_adv_prepare
 .text.event_adv_stop
                0x00000000000046e0       0x30 zephyr/subsys/bluetooth/controller/libsubsys__bluetooth__controller.a(ctrl.c.obj)
                0x00000000000046e0                event_adv_stop
 .text.packet_rx_allocate.constprop.51
                0x0000000000004710       0x94 zephyr/subsys/bluetooth/controller/libsubsys__bluetooth__controller.a(ctrl.c.obj)
 .text.common_init
                0x00000000000047a4       0xcc zephyr/subsys/bluetooth/controller/libsubsys__bluetooth__controller.a(ctrl.c.obj)
 .text.k32src_wait
                0x0000000000004870       0x38 zephyr/subsys/bluetooth/controller/libsubsys__bluetooth__controller.a(ctrl.c.obj)
 .text.mayfly_xtal_stop
                0x00000000000048a8       0x10 zephyr/subsys/bluetooth/controller/libsubsys__bluetooth__controller.a(ctrl.c.obj)
 .text.chan_sel_2
                0x00000000000048b8       0x86 zephyr/subsys/bluetooth/controller/libsubsys__bluetooth__controller.a(ctrl.c.obj)
 *fill*         0x000000000000493e        0x2 
 .text.preempt_calc
                0x0000000000004940       0x44 zephyr/subsys/bluetooth/controller/libsubsys__bluetooth__controller.a(ctrl.c.obj)
 .text.event_adv
                0x0000000000004984       0xb4 zephyr/subsys/bluetooth/controller/libsubsys__bluetooth__controller.a(ctrl.c.obj)
 .text.connection_configure
                0x0000000000004a38       0x3c zephyr/subsys/bluetooth/controller/libsubsys__bluetooth__controller.a(ctrl.c.obj)
 .text.event_slave
                0x0000000000004a74      0x170 zephyr/subsys/bluetooth/controller/libsubsys__bluetooth__controller.a(ctrl.c.obj)
 .text.ctrl_tx_enqueue
                0x0000000000004be4       0x5c zephyr/subsys/bluetooth/controller/libsubsys__bluetooth__controller.a(ctrl.c.obj)
 .text.ctrl_tx_sec_enqueue
                0x0000000000004c40       0x32 zephyr/subsys/bluetooth/controller/libsubsys__bluetooth__controller.a(ctrl.c.obj)
 *fill*         0x0000000000004c72        0x2 
 .text.feature_rsp_send
                0x0000000000004c74       0x8c zephyr/subsys/bluetooth/controller/libsubsys__bluetooth__controller.a(ctrl.c.obj)
 .text.event_connection_prepare
                0x0000000000004d00      0x688 zephyr/subsys/bluetooth/controller/libsubsys__bluetooth__controller.a(ctrl.c.obj)
 .text.event_slave_prepare
                0x0000000000005388        0x4 zephyr/subsys/bluetooth/controller/libsubsys__bluetooth__controller.a(ctrl.c.obj)
 .text.event_master_prepare
                0x000000000000538c        0x4 zephyr/subsys/bluetooth/controller/libsubsys__bluetooth__controller.a(ctrl.c.obj)
 .text.prepare_pdu_data_tx
                0x0000000000005390       0xc4 zephyr/subsys/bluetooth/controller/libsubsys__bluetooth__controller.a(ctrl.c.obj)
 *fill*         0x0000000000005454        0x4 
 .text.isr      0x0000000000005458     0x150c zephyr/subsys/bluetooth/controller/libsubsys__bluetooth__controller.a(ctrl.c.obj)
 *fill*         0x0000000000006964        0x4 
 .text.mayfly_xtal_stop_calc
                0x0000000000006968      0x1f8 zephyr/subsys/bluetooth/controller/libsubsys__bluetooth__controller.a(ctrl.c.obj)
 .text.event_master
                0x0000000000006b60      0x134 zephyr/subsys/bluetooth/controller/libsubsys__bluetooth__controller.a(ctrl.c.obj)
 .text.radio_init
                0x0000000000006c94       0xfc zephyr/subsys/bluetooth/controller/libsubsys__bluetooth__controller.a(ctrl.c.obj)
                0x0000000000006c94                radio_init
 .text.ll_reset
                0x0000000000006d90       0x9c zephyr/subsys/bluetooth/controller/libsubsys__bluetooth__controller.a(ctrl.c.obj)
                0x0000000000006d90                ll_reset
 .text.radio_adv_data_get
                0x0000000000006e2c        0x8 zephyr/subsys/bluetooth/controller/libsubsys__bluetooth__controller.a(ctrl.c.obj)
                0x0000000000006e2c                radio_adv_data_get
 .text.radio_scan_data_get
                0x0000000000006e34        0x8 zephyr/subsys/bluetooth/controller/libsubsys__bluetooth__controller.a(ctrl.c.obj)
                0x0000000000006e34                radio_scan_data_get
 .text.ll_adv_is_enabled
                0x0000000000006e3c       0x10 zephyr/subsys/bluetooth/controller/libsubsys__bluetooth__controller.a(ctrl.c.obj)
                0x0000000000006e3c                ll_adv_is_enabled
 .text.radio_adv_filter_pol_get
                0x0000000000006e4c       0x18 zephyr/subsys/bluetooth/controller/libsubsys__bluetooth__controller.a(ctrl.c.obj)
                0x0000000000006e4c                radio_adv_filter_pol_get
 .text.ll_scan_is_enabled
                0x0000000000006e64       0x2c zephyr/subsys/bluetooth/controller/libsubsys__bluetooth__controller.a(ctrl.c.obj)
                0x0000000000006e64                ll_scan_is_enabled
 .text.radio_scan_filter_pol_get
                0x0000000000006e90       0x1c zephyr/subsys/bluetooth/controller/libsubsys__bluetooth__controller.a(ctrl.c.obj)
                0x0000000000006e90                radio_scan_filter_pol_get
 .text.ll_tx_pwr_lvl_get
                0x0000000000006eac       0x14 zephyr/subsys/bluetooth/controller/libsubsys__bluetooth__controller.a(ctrl.c.obj)
                0x0000000000006eac                ll_tx_pwr_lvl_get
 .text.ll_rx_get
                0x0000000000006ec0       0x70 zephyr/subsys/bluetooth/controller/libsubsys__bluetooth__controller.a(ctrl.c.obj)
                0x0000000000006ec0                ll_rx_get
 .text.ll_rx_mem_release
                0x0000000000006f30       0x64 zephyr/subsys/bluetooth/controller/libsubsys__bluetooth__controller.a(ctrl.c.obj)
                0x0000000000006f30                ll_rx_mem_release
 .text.do_radio_rx_fc_set
                0x0000000000006f94       0x5c zephyr/subsys/bluetooth/controller/libsubsys__bluetooth__controller.a(ctrl.c.obj)
                0x0000000000006f94                do_radio_rx_fc_set
 .text.radio_rx_fc_set
                0x0000000000006ff0       0x58 zephyr/subsys/bluetooth/controller/libsubsys__bluetooth__controller.a(ctrl.c.obj)
                0x0000000000006ff0                radio_rx_fc_set
 .text.ll_adv_scan_state_cb
                0x0000000000007048        0x2 zephyr/subsys/bluetooth/controller/libsubsys__bluetooth__controller.a(ctrl.c.obj)
                0x0000000000007048                ll_adv_scan_state_cb
 *fill*         0x000000000000704a        0x6 
 .text.radio_adv_enable
                0x0000000000007050      0x2b4 zephyr/subsys/bluetooth/controller/libsubsys__bluetooth__controller.a(ctrl.c.obj)
                0x0000000000007050                radio_adv_enable
 .text.radio_adv_disable
                0x0000000000007304       0x5c zephyr/subsys/bluetooth/controller/libsubsys__bluetooth__controller.a(ctrl.c.obj)
                0x0000000000007304                radio_adv_disable
 .text.ll_rx_dequeue
                0x0000000000007360       0xe0 zephyr/subsys/bluetooth/controller/libsubsys__bluetooth__controller.a(ctrl.c.obj)
                0x0000000000007360                ll_rx_dequeue
 .text.rtc0_nrf5_isr
                0x0000000000007440       0x34 zephyr/subsys/bluetooth/controller/libsubsys__bluetooth__controller.a(ll.c.obj)
 .text.swi4_nrf5_isr
                0x0000000000007474        0x6 zephyr/subsys/bluetooth/controller/libsubsys__bluetooth__controller.a(ll.c.obj)
 .text.radio_nrf5_isr
                0x000000000000747a       0x1e zephyr/subsys/bluetooth/controller/libsubsys__bluetooth__controller.a(ll.c.obj)
                0x000000000000747a                radio_nrf5_isr
 .text.radio_active_callback
                0x0000000000007498        0x2 zephyr/subsys/bluetooth/controller/libsubsys__bluetooth__controller.a(ll.c.obj)
                0x0000000000007498                radio_active_callback
 *fill*         0x000000000000749a        0x2 
 .text.radio_event_callback
                0x000000000000749c        0xc zephyr/subsys/bluetooth/controller/libsubsys__bluetooth__controller.a(ll.c.obj)
                0x000000000000749c                radio_event_callback
 .text.ll_init  0x00000000000074a8      0x110 zephyr/subsys/bluetooth/controller/libsubsys__bluetooth__controller.a(ll.c.obj)
                0x00000000000074a8                ll_init
 .text._hci_driver_init
                0x00000000000075b8       0x10 zephyr/subsys/bluetooth/controller/libsubsys__bluetooth__controller.a(hci_driver.c.obj)
 .text.hci_driver_send
                0x00000000000075c8       0x36 zephyr/subsys/bluetooth/controller/libsubsys__bluetooth__controller.a(hci_driver.c.obj)
 *fill*         0x00000000000075fe        0x2 
 .text.recv_thread
                0x0000000000007600       0x78 zephyr/subsys/bluetooth/controller/libsubsys__bluetooth__controller.a(hci_driver.c.obj)
 .text.prio_recv_thread
                0x0000000000007678       0x3c zephyr/subsys/bluetooth/controller/libsubsys__bluetooth__controller.a(hci_driver.c.obj)
 .text.hci_driver_open
                0x00000000000076b4       0x70 zephyr/subsys/bluetooth/controller/libsubsys__bluetooth__controller.a(hci_driver.c.obj)
 .text.sys_put_le32
                0x0000000000007724       0x12 zephyr/subsys/bluetooth/controller/libsubsys__bluetooth__controller.a(hci.c.obj)
 .text.evt_create
                0x0000000000007736       0x14 zephyr/subsys/bluetooth/controller/libsubsys__bluetooth__controller.a(hci.c.obj)
 *fill*         0x000000000000774a        0x2 
 .text.cmd_complete
                0x000000000000774c       0x44 zephyr/subsys/bluetooth/controller/libsubsys__bluetooth__controller.a(hci.c.obj)
 .text.meta_evt
                0x0000000000007790       0x2a zephyr/subsys/bluetooth/controller/libsubsys__bluetooth__controller.a(hci.c.obj)
 *fill*         0x00000000000077ba        0x2 
 .text.le_remote_feat_complete
                0x00000000000077bc       0x68 zephyr/subsys/bluetooth/controller/libsubsys__bluetooth__controller.a(hci.c.obj)
 .text.bt_addr_le_to_str.constprop.43
                0x0000000000007824       0x78 zephyr/subsys/bluetooth/controller/libsubsys__bluetooth__controller.a(hci.c.obj)
 .text.le_adv_ext_report.isra.38.part.39
                0x000000000000789c       0x36 zephyr/subsys/bluetooth/controller/libsubsys__bluetooth__controller.a(hci.c.obj)
 .text.sys_get_le64
                0x00000000000078d2        0x8 zephyr/subsys/bluetooth/controller/libsubsys__bluetooth__controller.a(hci.c.obj)
 *fill*         0x00000000000078da        0x2 
 .text.hci_cmd_handle
                0x00000000000078dc      0x5d4 zephyr/subsys/bluetooth/controller/libsubsys__bluetooth__controller.a(hci.c.obj)
                0x00000000000078dc                hci_cmd_handle
 .text.hci_evt_encode
                0x0000000000007eb0      0x1d0 zephyr/subsys/bluetooth/controller/libsubsys__bluetooth__controller.a(hci.c.obj)
                0x0000000000007eb0                hci_evt_encode
 .text.hci_get_class
                0x0000000000008080       0x40 zephyr/subsys/bluetooth/controller/libsubsys__bluetooth__controller.a(hci.c.obj)
                0x0000000000008080                hci_get_class
 .text.hci_init
                0x00000000000080c0       0x24 zephyr/subsys/bluetooth/controller/libsubsys__bluetooth__controller.a(hci.c.obj)
                0x00000000000080c0                hci_init
 .text.bt_rand  0x00000000000080e4       0x34 zephyr/subsys/bluetooth/controller/libsubsys__bluetooth__controller.a(crypto.c.obj)
                0x00000000000080e4                bt_rand
 .text.ll_adv_params_set
                0x0000000000008118      0x1e4 zephyr/subsys/bluetooth/controller/libsubsys__bluetooth__controller.a(ll_adv.c.obj)
                0x0000000000008118                ll_adv_params_set
 .text.ll_adv_data_set
                0x00000000000082fc       0xb0 zephyr/subsys/bluetooth/controller/libsubsys__bluetooth__controller.a(ll_adv.c.obj)
                0x00000000000082fc                ll_adv_data_set
 .text.ll_scan_data_set
                0x00000000000083ac       0x8c zephyr/subsys/bluetooth/controller/libsubsys__bluetooth__controller.a(ll_adv.c.obj)
                0x00000000000083ac                ll_scan_data_set
 .text.ll_adv_enable
                0x0000000000008438       0xc0 zephyr/subsys/bluetooth/controller/libsubsys__bluetooth__controller.a(ll_adv.c.obj)
                0x0000000000008438                ll_adv_enable
 .text.ctrl_filter_get
                0x00000000000084f8       0x18 zephyr/subsys/bluetooth/controller/libsubsys__bluetooth__controller.a(ll_filter.c.obj)
                0x00000000000084f8                ctrl_filter_get
 .text.ll_wl_size_get
                0x0000000000008510        0x4 zephyr/subsys/bluetooth/controller/libsubsys__bluetooth__controller.a(ll_filter.c.obj)
                0x0000000000008510                ll_wl_size_get
 .text.ll_wl_clear
                0x0000000000008514       0x2c zephyr/subsys/bluetooth/controller/libsubsys__bluetooth__controller.a(ll_filter.c.obj)
                0x0000000000008514                ll_wl_clear
 .text.ll_wl_add
                0x0000000000008540       0x70 zephyr/subsys/bluetooth/controller/libsubsys__bluetooth__controller.a(ll_filter.c.obj)
                0x0000000000008540                ll_wl_add
 .text.ll_wl_remove
                0x00000000000085b0       0x8c zephyr/subsys/bluetooth/controller/libsubsys__bluetooth__controller.a(ll_filter.c.obj)
                0x00000000000085b0                ll_wl_remove
 .text.ll_filter_reset
                0x000000000000863c       0x18 zephyr/subsys/bluetooth/controller/libsubsys__bluetooth__controller.a(ll_filter.c.obj)
                0x000000000000863c                ll_filter_reset
 .text.cntr_init
                0x0000000000008654       0x1c zephyr/subsys/bluetooth/controller/libsubsys__bluetooth__controller.a(cntr.c.obj)
                0x0000000000008654                cntr_init
 .text.cntr_start
                0x0000000000008670       0x1c zephyr/subsys/bluetooth/controller/libsubsys__bluetooth__controller.a(cntr.c.obj)
                0x0000000000008670                cntr_start
 .text.cntr_stop
                0x000000000000868c       0x30 zephyr/subsys/bluetooth/controller/libsubsys__bluetooth__controller.a(cntr.c.obj)
                0x000000000000868c                cntr_stop
 .text.cntr_cnt_get
                0x00000000000086bc        0xc zephyr/subsys/bluetooth/controller/libsubsys__bluetooth__controller.a(cntr.c.obj)
                0x00000000000086bc                cntr_cnt_get
 .text.cntr_cmp_set
                0x00000000000086c8       0x10 zephyr/subsys/bluetooth/controller/libsubsys__bluetooth__controller.a(cntr.c.obj)
                0x00000000000086c8                cntr_cmp_set
 .text.do_ecb   0x00000000000086d8       0x58 zephyr/subsys/bluetooth/controller/libsubsys__bluetooth__controller.a(ecb.c.obj)
 .text.ecb_encrypt
                0x0000000000008730       0x42 zephyr/subsys/bluetooth/controller/libsubsys__bluetooth__controller.a(ecb.c.obj)
                0x0000000000008730                ecb_encrypt
 *fill*         0x0000000000008772        0x2 
 .text.hal_radio_enable_on_tick_ppi_config_and_enable
                0x0000000000008774       0x30 zephyr/subsys/bluetooth/controller/libsubsys__bluetooth__controller.a(radio.c.obj)
 .text.sw_switch.isra.10
                0x00000000000087a4       0xc8 zephyr/subsys/bluetooth/controller/libsubsys__bluetooth__controller.a(radio.c.obj)
 .text.isr_radio
                0x000000000000886c       0x10 zephyr/subsys/bluetooth/controller/libsubsys__bluetooth__controller.a(radio.c.obj)
                0x000000000000886c                isr_radio
 .text.radio_isr_set
                0x000000000000887c       0x28 zephyr/subsys/bluetooth/controller/libsubsys__bluetooth__controller.a(radio.c.obj)
                0x000000000000887c                radio_isr_set
 .text.radio_setup
                0x00000000000088a4       0x44 zephyr/subsys/bluetooth/controller/libsubsys__bluetooth__controller.a(radio.c.obj)
                0x00000000000088a4                radio_setup
 .text.radio_reset
                0x00000000000088e8       0x34 zephyr/subsys/bluetooth/controller/libsubsys__bluetooth__controller.a(radio.c.obj)
                0x00000000000088e8                radio_reset
 .text.radio_phy_set
                0x000000000000891c       0x20 zephyr/subsys/bluetooth/controller/libsubsys__bluetooth__controller.a(radio.c.obj)
                0x000000000000891c                radio_phy_set
 .text.radio_tx_power_set
                0x000000000000893c        0xc zephyr/subsys/bluetooth/controller/libsubsys__bluetooth__controller.a(radio.c.obj)
                0x000000000000893c                radio_tx_power_set
 .text.radio_freq_chan_set
                0x0000000000008948        0xc zephyr/subsys/bluetooth/controller/libsubsys__bluetooth__controller.a(radio.c.obj)
                0x0000000000008948                radio_freq_chan_set
 .text.radio_whiten_iv_set
                0x0000000000008954       0x24 zephyr/subsys/bluetooth/controller/libsubsys__bluetooth__controller.a(radio.c.obj)
                0x0000000000008954                radio_whiten_iv_set
 .text.radio_aa_set
                0x0000000000008978       0x30 zephyr/subsys/bluetooth/controller/libsubsys__bluetooth__controller.a(radio.c.obj)
                0x0000000000008978                radio_aa_set
 .text.radio_pkt_configure
                0x00000000000089a8       0x5c zephyr/subsys/bluetooth/controller/libsubsys__bluetooth__controller.a(radio.c.obj)
                0x00000000000089a8                radio_pkt_configure
 .text.radio_pkt_rx_set
                0x0000000000008a04        0xc zephyr/subsys/bluetooth/controller/libsubsys__bluetooth__controller.a(radio.c.obj)
                0x0000000000008a04                radio_pkt_rx_set
 .text.radio_pkt_tx_set
                0x0000000000008a10        0xc zephyr/subsys/bluetooth/controller/libsubsys__bluetooth__controller.a(radio.c.obj)
                0x0000000000008a10                radio_pkt_tx_set
 .text.radio_tx_ready_delay_get
                0x0000000000008a1c        0xa zephyr/subsys/bluetooth/controller/libsubsys__bluetooth__controller.a(radio.c.obj)
                0x0000000000008a1c                radio_tx_ready_delay_get
 .text.radio_tx_chain_delay_get
                0x0000000000008a26        0x4 zephyr/subsys/bluetooth/controller/libsubsys__bluetooth__controller.a(radio.c.obj)
                0x0000000000008a26                radio_tx_chain_delay_get
 .text.radio_rx_ready_delay_get
                0x0000000000008a2a        0x4 zephyr/subsys/bluetooth/controller/libsubsys__bluetooth__controller.a(radio.c.obj)
                0x0000000000008a2a                radio_rx_ready_delay_get
 .text.radio_rx_chain_delay_get
                0x0000000000008a2e        0xa zephyr/subsys/bluetooth/controller/libsubsys__bluetooth__controller.a(radio.c.obj)
                0x0000000000008a2e                radio_rx_chain_delay_get
 .text.radio_rx_enable
                0x0000000000008a38        0xc zephyr/subsys/bluetooth/controller/libsubsys__bluetooth__controller.a(radio.c.obj)
                0x0000000000008a38                radio_rx_enable
 .text.radio_tx_enable
                0x0000000000008a44        0xc zephyr/subsys/bluetooth/controller/libsubsys__bluetooth__controller.a(radio.c.obj)
                0x0000000000008a44                radio_tx_enable
 .text.radio_disable
                0x0000000000008a50       0x24 zephyr/subsys/bluetooth/controller/libsubsys__bluetooth__controller.a(radio.c.obj)
                0x0000000000008a50                radio_disable
 .text.radio_status_reset
                0x0000000000008a74       0x18 zephyr/subsys/bluetooth/controller/libsubsys__bluetooth__controller.a(radio.c.obj)
                0x0000000000008a74                radio_status_reset
 .text.radio_is_ready
                0x0000000000008a8c       0x14 zephyr/subsys/bluetooth/controller/libsubsys__bluetooth__controller.a(radio.c.obj)
                0x0000000000008a8c                radio_is_ready
 .text.radio_is_done
                0x0000000000008aa0       0x14 zephyr/subsys/bluetooth/controller/libsubsys__bluetooth__controller.a(radio.c.obj)
                0x0000000000008aa0                radio_is_done
 .text.radio_is_idle
                0x0000000000008ab4       0x14 zephyr/subsys/bluetooth/controller/libsubsys__bluetooth__controller.a(radio.c.obj)
                0x0000000000008ab4                radio_is_idle
 .text.radio_crc_configure
                0x0000000000008ac8       0x18 zephyr/subsys/bluetooth/controller/libsubsys__bluetooth__controller.a(radio.c.obj)
                0x0000000000008ac8                radio_crc_configure
 .text.radio_crc_is_valid
                0x0000000000008ae0       0x14 zephyr/subsys/bluetooth/controller/libsubsys__bluetooth__controller.a(radio.c.obj)
                0x0000000000008ae0                radio_crc_is_valid
 .text.radio_pkt_empty_get
                0x0000000000008af4        0x8 zephyr/subsys/bluetooth/controller/libsubsys__bluetooth__controller.a(radio.c.obj)
                0x0000000000008af4                radio_pkt_empty_get
 .text.radio_pkt_scratch_get
                0x0000000000008afc        0x8 zephyr/subsys/bluetooth/controller/libsubsys__bluetooth__controller.a(radio.c.obj)
                0x0000000000008afc                radio_pkt_scratch_get
 .text.radio_switch_complete_and_rx
                0x0000000000008b04       0x18 zephyr/subsys/bluetooth/controller/libsubsys__bluetooth__controller.a(radio.c.obj)
                0x0000000000008b04                radio_switch_complete_and_rx
 .text.radio_switch_complete_and_tx
                0x0000000000008b1c       0x14 zephyr/subsys/bluetooth/controller/libsubsys__bluetooth__controller.a(radio.c.obj)
                0x0000000000008b1c                radio_switch_complete_and_tx
 .text.radio_switch_complete_and_disable
                0x0000000000008b30       0x1c zephyr/subsys/bluetooth/controller/libsubsys__bluetooth__controller.a(radio.c.obj)
                0x0000000000008b30                radio_switch_complete_and_disable
 .text.radio_rssi_measure
                0x0000000000008b4c       0x14 zephyr/subsys/bluetooth/controller/libsubsys__bluetooth__controller.a(radio.c.obj)
                0x0000000000008b4c                radio_rssi_measure
 .text.radio_rssi_get
                0x0000000000008b60        0xc zephyr/subsys/bluetooth/controller/libsubsys__bluetooth__controller.a(radio.c.obj)
                0x0000000000008b60                radio_rssi_get
 .text.radio_rssi_status_reset
                0x0000000000008b6c       0x10 zephyr/subsys/bluetooth/controller/libsubsys__bluetooth__controller.a(radio.c.obj)
                0x0000000000008b6c                radio_rssi_status_reset
 .text.radio_rssi_is_ready
                0x0000000000008b7c       0x14 zephyr/subsys/bluetooth/controller/libsubsys__bluetooth__controller.a(radio.c.obj)
                0x0000000000008b7c                radio_rssi_is_ready
 .text.radio_filter_configure
                0x0000000000008b90       0x34 zephyr/subsys/bluetooth/controller/libsubsys__bluetooth__controller.a(radio.c.obj)
                0x0000000000008b90                radio_filter_configure
 .text.radio_filter_disable
                0x0000000000008bc4       0x14 zephyr/subsys/bluetooth/controller/libsubsys__bluetooth__controller.a(radio.c.obj)
                0x0000000000008bc4                radio_filter_disable
 .text.radio_filter_status_reset
                0x0000000000008bd8       0x10 zephyr/subsys/bluetooth/controller/libsubsys__bluetooth__controller.a(radio.c.obj)
                0x0000000000008bd8                radio_filter_status_reset
 .text.radio_filter_has_match
                0x0000000000008be8       0x14 zephyr/subsys/bluetooth/controller/libsubsys__bluetooth__controller.a(radio.c.obj)
                0x0000000000008be8                radio_filter_has_match
 .text.radio_filter_match_get
                0x0000000000008bfc        0xc zephyr/subsys/bluetooth/controller/libsubsys__bluetooth__controller.a(radio.c.obj)
                0x0000000000008bfc                radio_filter_match_get
 .text.radio_tmr_status_reset
                0x0000000000008c08       0x1c zephyr/subsys/bluetooth/controller/libsubsys__bluetooth__controller.a(radio.c.obj)
                0x0000000000008c08                radio_tmr_status_reset
 .text.radio_tmr_tifs_set
                0x0000000000008c24       0x18 zephyr/subsys/bluetooth/controller/libsubsys__bluetooth__controller.a(radio.c.obj)
                0x0000000000008c24                radio_tmr_tifs_set
 .text.radio_tmr_start
                0x0000000000008c3c       0xe8 zephyr/subsys/bluetooth/controller/libsubsys__bluetooth__controller.a(radio.c.obj)
                0x0000000000008c3c                radio_tmr_start
 .text.radio_tmr_stop
                0x0000000000008d24       0x18 zephyr/subsys/bluetooth/controller/libsubsys__bluetooth__controller.a(radio.c.obj)
                0x0000000000008d24                radio_tmr_stop
 .text.radio_tmr_hcto_configure
                0x0000000000008d3c       0x3c zephyr/subsys/bluetooth/controller/libsubsys__bluetooth__controller.a(radio.c.obj)
                0x0000000000008d3c                radio_tmr_hcto_configure
 .text.radio_tmr_aa_capture
                0x0000000000008d78       0x38 zephyr/subsys/bluetooth/controller/libsubsys__bluetooth__controller.a(radio.c.obj)
                0x0000000000008d78                radio_tmr_aa_capture
 .text.radio_tmr_aa_get
                0x0000000000008db0        0xc zephyr/subsys/bluetooth/controller/libsubsys__bluetooth__controller.a(radio.c.obj)
                0x0000000000008db0                radio_tmr_aa_get
 .text.radio_tmr_aa_save
                0x0000000000008dbc        0xc zephyr/subsys/bluetooth/controller/libsubsys__bluetooth__controller.a(radio.c.obj)
                0x0000000000008dbc                radio_tmr_aa_save
 .text.radio_tmr_aa_restore
                0x0000000000008dc8        0xc zephyr/subsys/bluetooth/controller/libsubsys__bluetooth__controller.a(radio.c.obj)
                0x0000000000008dc8                radio_tmr_aa_restore
 .text.radio_tmr_ready_get
                0x0000000000008dd4        0xc zephyr/subsys/bluetooth/controller/libsubsys__bluetooth__controller.a(radio.c.obj)
                0x0000000000008dd4                radio_tmr_ready_get
 .text.radio_tmr_end_capture
                0x0000000000008de0       0x24 zephyr/subsys/bluetooth/controller/libsubsys__bluetooth__controller.a(radio.c.obj)
                0x0000000000008de0                radio_tmr_end_capture
 .text.radio_tmr_end_get
                0x0000000000008e04        0xc zephyr/subsys/bluetooth/controller/libsubsys__bluetooth__controller.a(radio.c.obj)
                0x0000000000008e04                radio_tmr_end_get
 .text.radio_tmr_tifs_base_get
                0x0000000000008e10        0xc zephyr/subsys/bluetooth/controller/libsubsys__bluetooth__controller.a(radio.c.obj)
                0x0000000000008e10                radio_tmr_tifs_base_get
 .text.radio_ccm_rx_pkt_set
                0x0000000000008e1c       0x78 zephyr/subsys/bluetooth/controller/libsubsys__bluetooth__controller.a(radio.c.obj)
                0x0000000000008e1c                radio_ccm_rx_pkt_set
 .text.radio_ccm_tx_pkt_set
                0x0000000000008e94       0x4c zephyr/subsys/bluetooth/controller/libsubsys__bluetooth__controller.a(radio.c.obj)
                0x0000000000008e94                radio_ccm_tx_pkt_set
 .text.radio_ccm_is_done
                0x0000000000008ee0       0x3c zephyr/subsys/bluetooth/controller/libsubsys__bluetooth__controller.a(radio.c.obj)
                0x0000000000008ee0                radio_ccm_is_done
 .text.radio_ccm_mic_is_valid
                0x0000000000008f1c       0x14 zephyr/subsys/bluetooth/controller/libsubsys__bluetooth__controller.a(radio.c.obj)
                0x0000000000008f1c                radio_ccm_mic_is_valid
 .text.radio_ar_match_get
                0x0000000000008f30        0xc zephyr/subsys/bluetooth/controller/libsubsys__bluetooth__controller.a(radio.c.obj)
                0x0000000000008f30                radio_ar_match_get
 .text.radio_ar_status_reset
                0x0000000000008f3c       0x18 zephyr/subsys/bluetooth/controller/libsubsys__bluetooth__controller.a(radio.c.obj)
                0x0000000000008f3c                radio_ar_status_reset
 .text.radio_ar_has_match
                0x0000000000008f54       0x28 zephyr/subsys/bluetooth/controller/libsubsys__bluetooth__controller.a(radio.c.obj)
                0x0000000000008f54                radio_ar_has_match
 .text.mayfly_enable_cb
                0x0000000000008f7c       0x1c zephyr/subsys/bluetooth/controller/libsubsys__bluetooth__controller.a(mayfly.c.obj)
                0x0000000000008f7c                mayfly_enable_cb
 .text.mayfly_is_enabled
                0x0000000000008f98       0x1c zephyr/subsys/bluetooth/controller/libsubsys__bluetooth__controller.a(mayfly.c.obj)
                0x0000000000008f98                mayfly_is_enabled
 .text.mayfly_prio_is_equal
                0x0000000000008fb4       0x22 zephyr/subsys/bluetooth/controller/libsubsys__bluetooth__controller.a(mayfly.c.obj)
                0x0000000000008fb4                mayfly_prio_is_equal
 *fill*         0x0000000000008fd6        0x2 
 .text.mayfly_pend
                0x0000000000008fd8       0x28 zephyr/subsys/bluetooth/controller/libsubsys__bluetooth__controller.a(mayfly.c.obj)
                0x0000000000008fd8                mayfly_pend
 .text.hal_ticker_instance0_caller_id_get
                0x0000000000009000       0x20 zephyr/subsys/bluetooth/controller/libsubsys__bluetooth__controller.a(ticker.c.obj)
                0x0000000000009000                hal_ticker_instance0_caller_id_get
 .text.hal_ticker_instance0_sched
                0x0000000000009020       0x78 zephyr/subsys/bluetooth/controller/libsubsys__bluetooth__controller.a(ticker.c.obj)
                0x0000000000009020                hal_ticker_instance0_sched
 .text.hal_ticker_instance0_trigger_set
                0x0000000000009098        0x8 zephyr/subsys/bluetooth/controller/libsubsys__bluetooth__controller.a(ticker.c.obj)
                0x0000000000009098                hal_ticker_instance0_trigger_set
 .text.fixed_data_unref
                0x00000000000090a0        0x2 zephyr/subsys/net/libsubsys__net.a(buf.c.obj)
 *fill*         0x00000000000090a2        0x2 
 .text.net_buf_pool_get
                0x00000000000090a4        0xc zephyr/subsys/net/libsubsys__net.a(buf.c.obj)
                0x00000000000090a4                net_buf_pool_get
 .text.net_buf_id
                0x00000000000090b0       0x1c zephyr/subsys/net/libsubsys__net.a(buf.c.obj)
                0x00000000000090b0                net_buf_id
 .text.fixed_data_alloc
                0x00000000000090cc       0x2c zephyr/subsys/net/libsubsys__net.a(buf.c.obj)
 .text.net_buf_alloc_len
                0x00000000000090f8       0xd4 zephyr/subsys/net/libsubsys__net.a(buf.c.obj)
                0x00000000000090f8                net_buf_alloc_len
 .text.net_buf_alloc_fixed
                0x00000000000091cc        0xc zephyr/subsys/net/libsubsys__net.a(buf.c.obj)
                0x00000000000091cc                net_buf_alloc_fixed
 .text.net_buf_simple_reserve
                0x00000000000091d8        0x8 zephyr/subsys/net/libsubsys__net.a(buf.c.obj)
                0x00000000000091d8                net_buf_simple_reserve
 .text.net_buf_put
                0x00000000000091e0       0x1a zephyr/subsys/net/libsubsys__net.a(buf.c.obj)
                0x00000000000091e0                net_buf_put
 *fill*         0x00000000000091fa        0x2 
 .text.net_buf_unref
                0x00000000000091fc       0x5c zephyr/subsys/net/libsubsys__net.a(buf.c.obj)
                0x00000000000091fc                net_buf_unref
 .text.net_buf_ref
                0x0000000000009258        0x8 zephyr/subsys/net/libsubsys__net.a(buf.c.obj)
                0x0000000000009258                net_buf_ref
 .text.net_buf_simple_add
                0x0000000000009260        0xc zephyr/subsys/net/libsubsys__net.a(buf.c.obj)
                0x0000000000009260                net_buf_simple_add
 .text.net_buf_simple_add_mem
                0x000000000000926c       0x12 zephyr/subsys/net/libsubsys__net.a(buf.c.obj)
                0x000000000000926c                net_buf_simple_add_mem
 .text.net_buf_simple_pull
                0x000000000000927e       0x10 zephyr/subsys/net/libsubsys__net.a(buf.c.obj)
                0x000000000000927e                net_buf_simple_pull
 .text.gpio_nrf5_read
                0x000000000000928e       0x20 zephyr/drivers/gpio/libdrivers__gpio.a(gpio_nrf5.c.obj)
 .text.gpio_nrf5_write
                0x00000000000092ae       0x24 zephyr/drivers/gpio/libdrivers__gpio.a(gpio_nrf5.c.obj)
 .text.gpio_nrf5_manage_callback
                0x00000000000092d2       0x42 zephyr/drivers/gpio/libdrivers__gpio.a(gpio_nrf5.c.obj)
 .text.gpiote_find_channel.isra.4
                0x0000000000009314       0x3c zephyr/drivers/gpio/libdrivers__gpio.a(gpio_nrf5.c.obj)
 .text.gpio_nrf5_enable_callback
                0x0000000000009350       0x48 zephyr/drivers/gpio/libdrivers__gpio.a(gpio_nrf5.c.obj)
 .text.gpio_nrf5_disable_callback
                0x0000000000009398       0x40 zephyr/drivers/gpio/libdrivers__gpio.a(gpio_nrf5.c.obj)
 .text.gpio_nrf5_config
                0x00000000000093d8      0x104 zephyr/drivers/gpio/libdrivers__gpio.a(gpio_nrf5.c.obj)
 .text.gpio_nrf5_P0_init
                0x00000000000094dc       0x16 zephyr/drivers/gpio/libdrivers__gpio.a(gpio_nrf5.c.obj)
 *fill*         0x00000000000094f2        0x2 
 .text.gpio_nrf5_port_isr
                0x00000000000094f4       0x5c zephyr/drivers/gpio/libdrivers__gpio.a(gpio_nrf5.c.obj)
 .text.dht_channel_get
                0x0000000000009550       0x14 zephyr/drivers/sensor/dht/libdrivers__sensor__dht.a(dht.c.obj)
 .text.dht_measure_signal_duration.isra.0
                0x0000000000009564       0x44 zephyr/drivers/sensor/dht/libdrivers__sensor__dht.a(dht.c.obj)
 .text.dht_init
                0x00000000000095a8       0x38 zephyr/drivers/sensor/dht/libdrivers__sensor__dht.a(dht.c.obj)
 .text.gpio_pin_write.constprop.2
                0x00000000000095e0       0x12 zephyr/drivers/sensor/dht/libdrivers__sensor__dht.a(dht.c.obj)
 .text.dht_sample_fetch
                0x00000000000095f2      0x122 zephyr/drivers/sensor/dht/libdrivers__sensor__dht.a(dht.c.obj)
 .text.get      0x0000000000009714       0xc4 zephyr/drivers/entropy/libdrivers__entropy.a(entropy_nrf5.c.obj)
 .text.isr      0x00000000000097d8       0x48 zephyr/drivers/entropy/libdrivers__entropy.a(entropy_nrf5.c.obj)
 .text.entropy_nrf5_init
                0x0000000000009820       0x74 zephyr/drivers/entropy/libdrivers__entropy.a(entropy_nrf5.c.obj)
 .text.entropy_nrf5_get_entropy_isr
                0x0000000000009894       0x84 zephyr/drivers/entropy/libdrivers__entropy.a(entropy_nrf5.c.obj)
 .text.isr_rand
                0x0000000000009918       0x58 zephyr/drivers/entropy/libdrivers__entropy.a(entropy_nrf5.c.obj)
 .text.entropy_nrf5_get_entropy
                0x0000000000009970       0x54 zephyr/drivers/entropy/libdrivers__entropy.a(entropy_nrf5.c.obj)
 .text.entropy_nrf_get_entropy_isr
                0x00000000000099c4       0x10 zephyr/drivers/entropy/libdrivers__entropy.a(entropy_nrf5.c.obj)
                0x00000000000099c4                entropy_nrf_get_entropy_isr
 .text._sys_device_do_config_level
                0x00000000000099d4       0x28 zephyr/kernel/libkernel.a(device.c.obj)
                0x00000000000099d4                _sys_device_do_config_level
 .text.device_get_binding
                0x00000000000099fc       0x4c zephyr/kernel/libkernel.a(device.c.obj)
                0x00000000000099fc                device_get_binding
 .text._sys_power_save_idle_exit
                0x0000000000009a48       0x18 zephyr/kernel/libkernel.a(idle.c.obj)
                0x0000000000009a48                _sys_power_save_idle_exit
 .text.idle     0x0000000000009a60       0x48 zephyr/kernel/libkernel.a(idle.c.obj)
                0x0000000000009a60                idle
 .text._bss_zero
                0x0000000000009aa8       0x14 zephyr/kernel/libkernel.a(init.c.obj)
                0x0000000000009aa8                _bss_zero
 .text._data_copy
                0x0000000000009abc       0x18 zephyr/kernel/libkernel.a(init.c.obj)
                0x0000000000009abc                _data_copy
 .text.bg_thread_main
                0x0000000000009ad4       0x30 zephyr/kernel/libkernel.a(init.c.obj)
 .text._Cstart  0x0000000000009b04       0xf4 zephyr/kernel/libkernel.a(init.c.obj)
                0x0000000000009b04                _Cstart
 .text.init_static_pools
                0x0000000000009bf8       0x28 zephyr/kernel/libkernel.a(mempool.c.obj)
                0x0000000000009bf8                init_static_pools
 .text.k_mem_pool_alloc
                0x0000000000009c20       0xd0 zephyr/kernel/libkernel.a(mempool.c.obj)
                0x0000000000009c20                k_mem_pool_alloc
 .text.k_mem_pool_free_id
                0x0000000000009cf0       0x60 zephyr/kernel/libkernel.a(mempool.c.obj)
                0x0000000000009cf0                k_mem_pool_free_id
 .text.k_mem_pool_malloc
                0x0000000000009d50       0x28 zephyr/kernel/libkernel.a(mempool.c.obj)
                0x0000000000009d50                k_mem_pool_malloc
 .text.k_free   0x0000000000009d78        0xa zephyr/kernel/libkernel.a(mempool.c.obj)
                0x0000000000009d78                k_free
 *fill*         0x0000000000009d82        0x2 
 .text.z_thread_malloc
                0x0000000000009d84       0x14 zephyr/kernel/libkernel.a(mempool.c.obj)
                0x0000000000009d84                z_thread_malloc
 .text.queue_insert
                0x0000000000009d98       0x8c zephyr/kernel/libkernel.a(queue.c.obj)
 .text.z_queue_node_peek
                0x0000000000009e24       0x18 zephyr/kernel/libkernel.a(queue.c.obj)
                0x0000000000009e24                z_queue_node_peek
 .text._impl_k_queue_init
                0x0000000000009e3c       0x10 zephyr/kernel/libkernel.a(queue.c.obj)
                0x0000000000009e3c                _impl_k_queue_init
 .text.k_queue_append
                0x0000000000009e4c        0xa zephyr/kernel/libkernel.a(queue.c.obj)
                0x0000000000009e4c                k_queue_append
 .text.k_queue_prepend
                0x0000000000009e56        0xa zephyr/kernel/libkernel.a(queue.c.obj)
                0x0000000000009e56                k_queue_prepend
 .text.k_queue_append_list
                0x0000000000009e60       0x34 zephyr/kernel/libkernel.a(queue.c.obj)
                0x0000000000009e60                k_queue_append_list
 .text._impl_k_queue_get
                0x0000000000009e94       0xbc zephyr/kernel/libkernel.a(queue.c.obj)
                0x0000000000009e94                _impl_k_queue_get
 .text.sys_dlist_remove
                0x0000000000009f50        0xc zephyr/kernel/libkernel.a(sched.c.obj)
 .text._abort_timeout
                0x0000000000009f5c       0x30 zephyr/kernel/libkernel.a(sched.c.obj)
 .text.k_spin_lock.isra.11
                0x0000000000009f8c        0xe zephyr/kernel/libkernel.a(sched.c.obj)
 *fill*         0x0000000000009f9a        0x2 
 .text.update_cache
                0x0000000000009f9c       0x40 zephyr/kernel/libkernel.a(sched.c.obj)
 .text._is_t1_higher_prio_than_t2
                0x0000000000009fdc       0x12 zephyr/kernel/libkernel.a(sched.c.obj)
                0x0000000000009fdc                _is_t1_higher_prio_than_t2
 *fill*         0x0000000000009fee        0x2 
 .text._remove_thread_from_ready_q
                0x0000000000009ff0       0x38 zephyr/kernel/libkernel.a(sched.c.obj)
                0x0000000000009ff0                _remove_thread_from_ready_q
 .text._find_first_thread_to_unpend
                0x000000000000a028       0x18 zephyr/kernel/libkernel.a(sched.c.obj)
                0x000000000000a028                _find_first_thread_to_unpend
 .text._unpend_thread_no_timeout
                0x000000000000a040       0x1e zephyr/kernel/libkernel.a(sched.c.obj)
                0x000000000000a040                _unpend_thread_no_timeout
 .text._unpend_first_thread
                0x000000000000a05e       0x1c zephyr/kernel/libkernel.a(sched.c.obj)
                0x000000000000a05e                _unpend_first_thread
 .text._unpend_thread
                0x000000000000a07a       0x14 zephyr/kernel/libkernel.a(sched.c.obj)
                0x000000000000a07a                _unpend_thread
 *fill*         0x000000000000a08e        0x2 
 .text._reschedule
                0x000000000000a090       0x3c zephyr/kernel/libkernel.a(sched.c.obj)
                0x000000000000a090                _reschedule
 .text.k_sched_unlock
                0x000000000000a0cc       0x34 zephyr/kernel/libkernel.a(sched.c.obj)
                0x000000000000a0cc                k_sched_unlock
 .text._priq_dumb_add
                0x000000000000a100       0x3e zephyr/kernel/libkernel.a(sched.c.obj)
                0x000000000000a100                _priq_dumb_add
 *fill*         0x000000000000a13e        0x2 
 .text._add_thread_to_ready_q
                0x000000000000a140       0x2c zephyr/kernel/libkernel.a(sched.c.obj)
                0x000000000000a140                _add_thread_to_ready_q
 .text._ready_thread
                0x000000000000a16c       0x12 zephyr/kernel/libkernel.a(sched.c.obj)
 *fill*         0x000000000000a17e        0x2 
 .text._add_timeout
                0x000000000000a180       0x9c zephyr/kernel/libkernel.a(sched.c.obj)
 .text._move_thread_to_end_of_prio_q
                0x000000000000a21c       0x30 zephyr/kernel/libkernel.a(sched.c.obj)
                0x000000000000a21c                _move_thread_to_end_of_prio_q
 .text.pend     0x000000000000a24c       0x5e zephyr/kernel/libkernel.a(sched.c.obj)
 *fill*         0x000000000000a2aa        0x2 
 .text._pend_current_thread
                0x000000000000a2ac       0x24 zephyr/kernel/libkernel.a(sched.c.obj)
                0x000000000000a2ac                _pend_current_thread
 .text._is_thread_time_slicing
                0x000000000000a2d0       0x5c zephyr/kernel/libkernel.a(sched.c.obj)
                0x000000000000a2d0                _is_thread_time_slicing
 .text._update_time_slice_before_swap
                0x000000000000a32c        0xc zephyr/kernel/libkernel.a(sched.c.obj)
                0x000000000000a32c                _update_time_slice_before_swap
 .text._unpend_all
                0x000000000000a338       0x20 zephyr/kernel/libkernel.a(sched.c.obj)
                0x000000000000a338                _unpend_all
 .text._sched_init
                0x000000000000a358       0x10 zephyr/kernel/libkernel.a(sched.c.obj)
                0x000000000000a358                _sched_init
 .text._impl_k_yield
                0x000000000000a368       0x60 zephyr/kernel/libkernel.a(sched.c.obj)
                0x000000000000a368                _impl_k_yield
 .text._impl_k_sleep
                0x000000000000a3c8       0x68 zephyr/kernel/libkernel.a(sched.c.obj)
                0x000000000000a3c8                _impl_k_sleep
 .text._impl_k_current_get
                0x000000000000a430        0xc zephyr/kernel/libkernel.a(sched.c.obj)
                0x000000000000a430                _impl_k_current_get
 .text._impl_k_sem_init
                0x000000000000a43c       0x12 zephyr/kernel/libkernel.a(sem.c.obj)
                0x000000000000a43c                _impl_k_sem_init
 .text._impl_k_sem_give
                0x000000000000a44e       0x4e zephyr/kernel/libkernel.a(sem.c.obj)
                0x000000000000a44e                _impl_k_sem_give
 .text._impl_k_sem_take
                0x000000000000a49c       0x38 zephyr/kernel/libkernel.a(sem.c.obj)
                0x000000000000a49c                _impl_k_sem_take
 .text._impl_k_uptime_get_32
                0x000000000000a4d4       0x44 zephyr/kernel/libkernel.a(sys_clock.c.obj)
                0x000000000000a4d4                _impl_k_uptime_get_32
 .text._tick_get
                0x000000000000a518       0x1c zephyr/kernel/libkernel.a(sys_clock.c.obj)
                0x000000000000a518                sys_tick_get
                0x000000000000a518                _tick_get
 .text._nano_sys_clock_tick_announce
                0x000000000000a534      0x1d4 zephyr/kernel/libkernel.a(sys_clock.c.obj)
                0x000000000000a534                _nano_sys_clock_tick_announce
 .text.k_sys_work_q_init
                0x000000000000a708       0x20 zephyr/kernel/libkernel.a(system_work_q.c.obj)
 .text._abort_timeout
                0x000000000000a728       0x30 zephyr/kernel/libkernel.a(thread.c.obj)
 .text._ready_thread
                0x000000000000a758       0x12 zephyr/kernel/libkernel.a(thread.c.obj)
 *fill*         0x000000000000a76a        0x2 
 .text.schedule_new_thread.part.11
                0x000000000000a76c       0xb8 zephyr/kernel/libkernel.a(thread.c.obj)
 .text.k_is_in_isr
                0x000000000000a824       0x20 zephyr/kernel/libkernel.a(thread.c.obj)
                0x000000000000a824                k_is_in_isr
 .text._is_thread_essential
                0x000000000000a844       0x10 zephyr/kernel/libkernel.a(thread.c.obj)
                0x000000000000a844                _is_thread_essential
 .text.k_busy_wait
                0x000000000000a854       0x28 zephyr/kernel/libkernel.a(thread.c.obj)
                0x000000000000a854                k_busy_wait
 .text._impl_k_thread_start
                0x000000000000a87c       0x2e zephyr/kernel/libkernel.a(thread.c.obj)
                0x000000000000a87c                _impl_k_thread_start
 *fill*         0x000000000000a8aa        0x2 
 .text._setup_new_thread
                0x000000000000a8ac       0x34 zephyr/kernel/libkernel.a(thread.c.obj)
                0x000000000000a8ac                _setup_new_thread
 .text._impl_k_thread_create
                0x000000000000a8e0       0x3c zephyr/kernel/libkernel.a(thread.c.obj)
                0x000000000000a8e0                _impl_k_thread_create
 .text._k_thread_single_abort
                0x000000000000a91c       0x40 zephyr/kernel/libkernel.a(thread.c.obj)
                0x000000000000a91c                _k_thread_single_abort
 .text._init_static_threads
                0x000000000000a95c       0x94 zephyr/kernel/libkernel.a(thread.c.obj)
                0x000000000000a95c                _init_static_threads
 .text._init_thread_base
                0x000000000000a9f0       0x18 zephyr/kernel/libkernel.a(thread.c.obj)
                0x000000000000a9f0                _init_thread_base
 .text.work_q_main
                0x000000000000aa08       0x3e zephyr/kernel/libkernel.a(work_q.c.obj)
 *fill*         0x000000000000aa46        0x2 
 .text.k_work_q_start
                0x000000000000aa48       0x34 zephyr/kernel/libkernel.a(work_q.c.obj)
                0x000000000000aa48                k_work_q_start
 .text.signal_poll_event
                0x000000000000aa7c       0x58 zephyr/kernel/libkernel.a(poll.c.obj)
 .text.add_event
                0x000000000000aad4       0x5e zephyr/kernel/libkernel.a(poll.c.obj)
 .text.clear_event_registrations
                0x000000000000ab32       0x44 zephyr/kernel/libkernel.a(poll.c.obj)
 .text.k_poll_event_init
                0x000000000000ab76       0x26 zephyr/kernel/libkernel.a(poll.c.obj)
                0x000000000000ab76                k_poll_event_init
 .text._impl_k_poll
                0x000000000000ab9c      0x108 zephyr/kernel/libkernel.a(poll.c.obj)
                0x000000000000ab9c                _impl_k_poll
 .text._handle_obj_poll_events
                0x000000000000aca4       0x18 zephyr/kernel/libkernel.a(poll.c.obj)
                0x000000000000aca4                _handle_obj_poll_events
 .text._OffsetAbsSyms
                0x000000000000acbc        0x2 zephyr/CMakeFiles/offsets.dir/arch/arm/core/offsets/offsets.c.obj
                0x000000000000acbc                _OffsetAbsSyms
 *(.gnu.linkonce.t.*)
                0x000000000000acbe                _image_text_end = .

.glue_7         0x000000000000acc0        0x0
 .glue_7        0x000000000000acc0        0x0 linker stubs

.glue_7t        0x000000000000acc0        0x0
 .glue_7t       0x000000000000acc0        0x0 linker stubs

.vfp11_veneer   0x000000000000acc0        0x0
 .vfp11_veneer  0x000000000000acc0        0x0 linker stubs

.v4_bx          0x000000000000acc0        0x0
 .v4_bx         0x000000000000acc0        0x0 linker stubs

.iplt           0x000000000000acc0        0x0
 .iplt          0x000000000000acc0        0x0 zephyr/CMakeFiles/kernel_elf.dir/isr_tables.c.obj

.igot.plt       0x000000000000acc0        0x0
 .igot.plt      0x000000000000acc0        0x0 zephyr/CMakeFiles/kernel_elf.dir/isr_tables.c.obj

.ARM.exidx      0x000000000000acc0        0x8
                0x000000000000acc0                __exidx_start = .
 *(.ARM.exidx* gnu.linkonce.armexidx.*)
 .ARM.exidx     0x000000000000acc0        0x8 /home/mark/cs7ns2/gcc-arm-none-eabi/bin/../lib/gcc/arm-none-eabi/7.3.1/thumb/v7e-m/libgcc.a(_udivmoddi4.o)
                0x000000000000acc8                __exidx_end = .
                0x000000000000acc8                _image_rodata_start = .

devconfig       0x000000000000acc8       0x90
                0x000000000000acc8                __devconfig_start = .
 *(.devconfig.*)
 .devconfig.init
                0x000000000000acc8        0xc zephyr/libzephyr.a(soc.c.obj)
 .devconfig.init
                0x000000000000acd4        0xc zephyr/libzephyr.a(rtt_console.c.obj)
 .devconfig.init
                0x000000000000ace0       0x18 zephyr/libzephyr.a(nrf5_power_clock.c.obj)
 .devconfig.init
                0x000000000000acf8        0xc zephyr/libzephyr.a(sys_clock_init.c.obj)
 .devconfig.init
                0x000000000000ad04        0xc zephyr/arch/arm/core/cortex_m/mpu/libarch__arm__core__cortex_m__mpu.a(arm_mpu.c.obj)
 .devconfig.init
                0x000000000000ad10        0xc zephyr/subsys/bluetooth/controller/libsubsys__bluetooth__controller.a(hci_driver.c.obj)
 .devconfig.init
                0x000000000000ad1c        0xc zephyr/drivers/gpio/libdrivers__gpio.a(gpio_nrf5.c.obj)
 .devconfig.init
                0x000000000000ad28        0xc zephyr/drivers/sensor/dht/libdrivers__sensor__dht.a(dht.c.obj)
 .devconfig.init
                0x000000000000ad34        0xc zephyr/drivers/entropy/libdrivers__entropy.a(entropy_nrf5.c.obj)
 .devconfig.init
                0x000000000000ad40        0xc zephyr/kernel/libkernel.a(mempool.c.obj)
 .devconfig.init
                0x000000000000ad4c        0xc zephyr/kernel/libkernel.a(system_work_q.c.obj)
 *(SORT_BY_NAME(.devconfig*))
                0x000000000000ad58                __devconfig_end = .

net_l2          0x000000000000ad58        0x0
                0x000000000000ad58                __net_l2_start = .
 *(.net_l2.init)
 *(SORT_BY_NAME(.net_l2.init*))
                0x000000000000ad58                __net_l2_end = .

log_const_sections
                0x000000000000ad58        0x0
                0x000000000000ad58                __log_const_start = .
 *(SORT_BY_NAME(.log_const_*))
                0x000000000000ad58                __log_const_end = .

log_backends_sections
                0x000000000000ad58        0x0
                0x000000000000ad58                __log_backends_start = .
 *(.log_backends)
                0x000000000000ad58                __log_backends_end = .

rodata          0x000000000000ad58      0x684
 *(.rodata)
 .rodata        0x000000000000ad58        0x7 zephyr/subsys/bluetooth/host/libsubsys__bluetooth__host.a(hci_core.c.obj)
 .rodata        0x000000000000ad5f       0x1a zephyr/subsys/bluetooth/controller/libsubsys__bluetooth__controller.a(ctrl.c.obj)
 *(.rodata.*)
 .rodata.main.str1.1
                0x000000000000ad79       0x4b libapp.a(main.c.obj)
 .rodata.str1.1
                0x000000000000adc4       0x4b zephyr/libzephyr.a(soc.c.obj)
                                          0x1 (size before relaxing)
 .rodata.str1.1
                0x000000000000adc4        0xf zephyr/libzephyr.a(mpu_regions.c.obj)
 .rodata._DoInit.str1.1
                0x000000000000add3       0x14 zephyr/libzephyr.a(SEGGER_RTT.c.obj)
 .rodata.sys_rand32_get.str1.1
                0x000000000000ade7        0xa zephyr/libzephyr.a(rand32_entropy_device.c.obj)
 .rodata.str1.1
                0x000000000000adf1        0x1 zephyr/libzephyr.a(rtt_console.c.obj)
 *fill*         0x000000000000adf1        0x3 
 .rodata._k32src_clock_control_api
                0x000000000000adf4        0xc zephyr/libzephyr.a(nrf5_power_clock.c.obj)
 .rodata._m16src_clock_control_api
                0x000000000000ae00        0xc zephyr/libzephyr.a(nrf5_power_clock.c.obj)
 .rodata.str1.1
                0x000000000000ae0c       0x16 zephyr/libzephyr.a(nrf5_power_clock.c.obj)
 .rodata.str1.1
                0x000000000000ae22        0xa zephyr/libzephyr.a(sys_clock_init.c.obj)
 .rodata._sys_clock_driver_init.str1.1
                0x000000000000ae2c        0xb zephyr/libzephyr.a(nrf_rtc_timer.c.obj)
 .rodata._BusFault.isra.3.str1.1
                0x000000000000ae2c       0x7c zephyr/arch/arm/core/libarch__arm__core.a(fault.c.obj)
 .rodata._Fault.str1.1
                0x000000000000aea8       0xd3 zephyr/arch/arm/core/libarch__arm__core.a(fault.c.obj)
 .rodata._MpuFault.isra.2.str1.1
                0x000000000000af7b       0xbd zephyr/arch/arm/core/libarch__arm__core.a(fault.c.obj)
 .rodata._UsageFault.isra.5.str1.1
                0x000000000000b038       0xd4 zephyr/arch/arm/core/libarch__arm__core.a(fault.c.obj)
 .rodata._NanoFatalErrorHandler.str1.1
                0x000000000000b10c       0xda zephyr/arch/arm/core/libarch__arm__core.a(fatal.c.obj)
 .rodata._SysFatalErrorHandler.str1.1
                0x000000000000b1e6       0x5a zephyr/arch/arm/core/libarch__arm__core.a(sys_fatal_error_handler.c.obj)
 .rodata.str1.1
                0x000000000000b240        0x1 zephyr/arch/arm/core/cortex_m/mpu/libarch__arm__core__cortex_m__mpu.a(arm_mpu.c.obj)
 .rodata.net_buf_fixed_alloc_hci_cmd_pool
                0x000000000000b240        0x8 zephyr/subsys/bluetooth/host/libsubsys__bluetooth__host.a(hci_core.c.obj)
 .rodata.net_buf_fixed_alloc_hci_rx_pool
                0x000000000000b248        0x8 zephyr/subsys/bluetooth/host/libsubsys__bluetooth__host.a(hci_core.c.obj)
 .rodata.net_buf_fixed_hci_cmd_pool
                0x000000000000b250        0x8 zephyr/subsys/bluetooth/host/libsubsys__bluetooth__host.a(hci_core.c.obj)
 .rodata.net_buf_fixed_hci_rx_pool
                0x000000000000b258        0x8 zephyr/subsys/bluetooth/host/libsubsys__bluetooth__host.a(hci_core.c.obj)
 .rodata.gc_lookup_ppm
                0x000000000000b260       0x10 zephyr/subsys/bluetooth/controller/libsubsys__bluetooth__controller.a(ctrl.c.obj)
 .rodata.k32src_wait.str1.1
                0x000000000000b270        0xb zephyr/subsys/bluetooth/controller/libsubsys__bluetooth__controller.a(ctrl.c.obj)
 .rodata.ll_init.str1.1
                0x000000000000b270       0x20 zephyr/subsys/bluetooth/controller/libsubsys__bluetooth__controller.a(ll.c.obj)
 .rodata.drv    0x000000000000b270       0x14 zephyr/subsys/bluetooth/controller/libsubsys__bluetooth__controller.a(hci_driver.c.obj)
 .rodata.str1.1
                0x000000000000b284        0xb zephyr/subsys/bluetooth/controller/libsubsys__bluetooth__controller.a(hci_driver.c.obj)
                                          0xc (size before relaxing)
 .rodata.bt_addr_le_to_str.constprop.43.str1.1
                0x000000000000b28f       0x4c zephyr/subsys/bluetooth/controller/libsubsys__bluetooth__controller.a(hci.c.obj)
 .rodata.hci_cmd_handle.str1.1
                0x000000000000b2db       0x28 zephyr/subsys/bluetooth/controller/libsubsys__bluetooth__controller.a(hci.c.obj)
 .rodata.caller_id_lut
                0x000000000000b303        0x4 zephyr/subsys/bluetooth/controller/libsubsys__bluetooth__controller.a(ticker.c.obj)
 *fill*         0x000000000000b307        0x1 
 .rodata.net_buf_fixed_cb
                0x000000000000b308        0xc zephyr/subsys/net/libsubsys__net.a(buf.c.obj)
                0x000000000000b308                net_buf_fixed_cb
 .rodata.drive_strength.9456
                0x000000000000b314       0x40 zephyr/drivers/gpio/libdrivers__gpio.a(gpio_nrf5.c.obj)
 .rodata.gpio_nrf5_P0_cfg
                0x000000000000b354        0x8 zephyr/drivers/gpio/libdrivers__gpio.a(gpio_nrf5.c.obj)
 .rodata.gpio_nrf5_drv_api_funcs
                0x000000000000b35c       0x1c zephyr/drivers/gpio/libdrivers__gpio.a(gpio_nrf5.c.obj)
 .rodata.str1.1
                0x000000000000b378        0x7 zephyr/drivers/gpio/libdrivers__gpio.a(gpio_nrf5.c.obj)
 *fill*         0x000000000000b37f        0x1 
 .rodata.dht_api
                0x000000000000b380       0x10 zephyr/drivers/sensor/dht/libdrivers__sensor__dht.a(dht.c.obj)
 .rodata.dht_init.str1.1
                0x000000000000b390        0x7 zephyr/drivers/sensor/dht/libdrivers__sensor__dht.a(dht.c.obj)
 .rodata.str1.1
                0x000000000000b390        0x4 zephyr/drivers/sensor/dht/libdrivers__sensor__dht.a(dht.c.obj)
 .rodata.entropy_nrf5_api_funcs
                0x000000000000b390        0x8 zephyr/drivers/entropy/libdrivers__entropy.a(entropy_nrf5.c.obj)
 .rodata.str1.1
                0x000000000000b398        0xa zephyr/drivers/entropy/libdrivers__entropy.a(entropy_nrf5.c.obj)
 .rodata.config_levels
                0x000000000000b398       0x14 zephyr/kernel/libkernel.a(device.c.obj)
 .rodata._k_neg_eagain
                0x000000000000b3ac        0x4 zephyr/kernel/libkernel.a(errno.c.obj)
                0x000000000000b3ac                _k_neg_eagain
 .rodata._idle_thread
                0x000000000000b3b0        0x4 zephyr/kernel/libkernel.a(init.c.obj)
                0x000000000000b3b0                _idle_thread
 .rodata.bg_thread_main.str1.1
                0x000000000000b3b4       0x27 zephyr/kernel/libkernel.a(init.c.obj)
 .rodata.str1.1
                0x000000000000b3db        0x1 zephyr/kernel/libkernel.a(mempool.c.obj)
 .rodata.str1.1
                0x000000000000b3db        0x1 zephyr/kernel/libkernel.a(system_work_q.c.obj)
 *(.gnu.linkonce.r.*)
                0x000000000000b3dc                . = ALIGN (0x4)
 *fill*         0x000000000000b3db        0x1 
                0x000000000000b3dc                _image_rodata_end = .
                0x000000000000b3dc                _image_rom_end = .
                0x0000000000000020                _app_data_align = 0x20

.rel.dyn        0x000000000000b3dc        0x0
 .rel.iplt      0x000000000000b3dc        0x0 zephyr/CMakeFiles/kernel_elf.dir/isr_tables.c.obj
                0x000000000000b3e0                . = ALIGN (0x20)

app_smem        0x0000000020000000        0x0 load address 0x000000000000b3dc
                0x0000000020000000                . = ALIGN (0x4)
                0x0000000020000000                _image_ram_start = .
                0x0000000020000000                _app_smem_start = .
 *(SORT_BY_NAME(data_smem_[_a-zA-Z0-9]*))
                0x0000000020000000                _app_smem_end = .
                0x0000000000000000                _app_smem_size = (_app_smem_end - _app_smem_start)
                0x0000000020000000                . = ALIGN (0x4)
                0x000000000000b3dc                _app_smem_rom_start = LOADADDR (app_smem)

bss             0x0000000020000000     0x13e8
                0x0000000020000000                . = ALIGN (0x4)
                0x0000000020000000                __bss_start = .
                0x0000000020000000                __kernel_ram_start = .
 *(.bss)
 *(.bss.*)
 .bss._acDownBuffer
                0x0000000020000000       0x10 zephyr/libzephyr.a(SEGGER_RTT.c.obj)
 .bss._acUpBuffer
                0x0000000020000010      0x400 zephyr/libzephyr.a(SEGGER_RTT.c.obj)
 .bss.entropy_driver
                0x0000000020000410        0x4 zephyr/libzephyr.a(rand32_entropy_device.c.obj)
 .bss.host_present
                0x0000000020000414        0x1 zephyr/libzephyr.a(rtt_console.c.obj)
 .bss.k32src_initialized
                0x0000000020000415        0x1 zephyr/libzephyr.a(nrf5_power_clock.c.obj)
 .bss.m16src_grd
                0x0000000020000416        0x1 zephyr/libzephyr.a(nrf5_power_clock.c.obj)
 .bss.m16src_ref
                0x0000000020000417        0x1 zephyr/libzephyr.a(nrf5_power_clock.c.obj)
 .bss.expected_sys_ticks
                0x0000000020000418        0x4 zephyr/libzephyr.a(nrf_rtc_timer.c.obj)
 .bss.rtc_past  0x000000002000041c        0x4 zephyr/libzephyr.a(nrf_rtc_timer.c.obj)
 .bss.cmd_data  0x0000000020000420       0x10 zephyr/subsys/bluetooth/host/libsubsys__bluetooth__host.a(hci_core.c.obj)
 .bss.dh_key_cb
                0x0000000020000430        0x4 zephyr/subsys/bluetooth/host/libsubsys__bluetooth__host.a(hci_core.c.obj)
 .bss.pub_key   0x0000000020000434       0x40 zephyr/subsys/bluetooth/host/libsubsys__bluetooth__host.a(hci_core.c.obj)
 .bss.pub_key_cb
                0x0000000020000474        0x4 zephyr/subsys/bluetooth/host/libsubsys__bluetooth__host.a(hci_core.c.obj)
 .bss.ready_cb  0x0000000020000478        0x4 zephyr/subsys/bluetooth/host/libsubsys__bluetooth__host.a(hci_core.c.obj)
 .bss.mfl       0x000000002000047c       0x80 zephyr/subsys/bluetooth/controller/libsubsys__bluetooth__controller.a(mayfly.c.obj)
 .bss.mft       0x00000000200004fc       0xc0 zephyr/subsys/bluetooth/controller/libsubsys__bluetooth__controller.a(mayfly.c.obj)
 .bss._instance
                0x00000000200005bc       0x58 zephyr/subsys/bluetooth/controller/libsubsys__bluetooth__controller.a(ticker.c.obj)
 .bss.pub_addr  0x0000000020000614        0x6 zephyr/subsys/bluetooth/controller/libsubsys__bluetooth__controller.a(ll_addr.c.obj)
 .bss.rnd_addr  0x000000002000061a        0x6 zephyr/subsys/bluetooth/controller/libsubsys__bluetooth__controller.a(ll_addr.c.obj)
 .bss._radio    0x0000000020000620      0x184 zephyr/subsys/bluetooth/controller/libsubsys__bluetooth__controller.a(ctrl.c.obj)
 .bss.link_inact.12246
                0x00000000200007a4        0x8 zephyr/subsys/bluetooth/controller/libsubsys__bluetooth__controller.a(ctrl.c.obj)
 .bss.link_inact.12561
                0x00000000200007ac        0x8 zephyr/subsys/bluetooth/controller/libsubsys__bluetooth__controller.a(ctrl.c.obj)
 .bss.link_radio.12260
                0x00000000200007b4        0x8 zephyr/subsys/bluetooth/controller/libsubsys__bluetooth__controller.a(ctrl.c.obj)
 .bss.link_radio.12569
                0x00000000200007bc        0x8 zephyr/subsys/bluetooth/controller/libsubsys__bluetooth__controller.a(ctrl.c.obj)
 .bss.link_xtal.12253
                0x00000000200007c4        0x8 zephyr/subsys/bluetooth/controller/libsubsys__bluetooth__controller.a(ctrl.c.obj)
 .bss.link_xtal.12565
                0x00000000200007cc        0x8 zephyr/subsys/bluetooth/controller/libsubsys__bluetooth__controller.a(ctrl.c.obj)
 .bss.s_active.11928
                0x00000000200007d4        0x1 zephyr/subsys/bluetooth/controller/libsubsys__bluetooth__controller.a(ctrl.c.obj)
 *fill*         0x00000000200007d5        0x3 
 .bss.s_link.11935
                0x00000000200007d8        0x8 zephyr/subsys/bluetooth/controller/libsubsys__bluetooth__controller.a(ctrl.c.obj)
 .bss.s_link.11947
                0x00000000200007e0        0x8 zephyr/subsys/bluetooth/controller/libsubsys__bluetooth__controller.a(ctrl.c.obj)
 .bss.s_link.11959
                0x00000000200007e8        0x8 zephyr/subsys/bluetooth/controller/libsubsys__bluetooth__controller.a(ctrl.c.obj)
 .bss.s_link.11977
                0x00000000200007f0        0x8 zephyr/subsys/bluetooth/controller/libsubsys__bluetooth__controller.a(ctrl.c.obj)
 .bss.s_link.11980
                0x00000000200007f8       0x10 zephyr/subsys/bluetooth/controller/libsubsys__bluetooth__controller.a(ctrl.c.obj)
 .bss.s_link.12098
                0x0000000020000808        0x8 zephyr/subsys/bluetooth/controller/libsubsys__bluetooth__controller.a(ctrl.c.obj)
 .bss.s_link.12118
                0x0000000020000810        0x8 zephyr/subsys/bluetooth/controller/libsubsys__bluetooth__controller.a(ctrl.c.obj)
 .bss.s_link.12266
                0x0000000020000818        0x8 zephyr/subsys/bluetooth/controller/libsubsys__bluetooth__controller.a(ctrl.c.obj)
 .bss.s_link.12314
                0x0000000020000820        0x8 zephyr/subsys/bluetooth/controller/libsubsys__bluetooth__controller.a(ctrl.c.obj)
 .bss.s_xtal_retained.11976
                0x0000000020000828        0x1 zephyr/subsys/bluetooth/controller/libsubsys__bluetooth__controller.a(ctrl.c.obj)
 *fill*         0x0000000020000829        0x3 
 .bss._radio    0x000000002000082c      0x1f0 zephyr/subsys/bluetooth/controller/libsubsys__bluetooth__controller.a(ll.c.obj)
 .bss._ticker_nodes
                0x0000000020000a1c      0x118 zephyr/subsys/bluetooth/controller/libsubsys__bluetooth__controller.a(ll.c.obj)
 .bss._ticker_user_ops
                0x0000000020000b34      0x270 zephyr/subsys/bluetooth/controller/libsubsys__bluetooth__controller.a(ll.c.obj)
 .bss._ticker_users
                0x0000000020000da4       0x20 zephyr/subsys/bluetooth/controller/libsubsys__bluetooth__controller.a(ll.c.obj)
 .bss.sem_recv  0x0000000020000dc4        0x4 zephyr/subsys/bluetooth/controller/libsubsys__bluetooth__controller.a(ll.c.obj)
 .bss._opcode   0x0000000020000dc8        0x2 zephyr/subsys/bluetooth/controller/libsubsys__bluetooth__controller.a(hci.c.obj)
 *fill*         0x0000000020000dca        0x2 
 .bss.ll_adv    0x0000000020000dcc        0x8 zephyr/subsys/bluetooth/controller/libsubsys__bluetooth__controller.a(ll_adv.c.obj)
 .bss.wl_filter
                0x0000000020000dd4       0x32 zephyr/subsys/bluetooth/controller/libsubsys__bluetooth__controller.a(ll_filter.c.obj)
 .bss._refcount
                0x0000000020000e06        0x1 zephyr/subsys/bluetooth/controller/libsubsys__bluetooth__controller.a(cntr.c.obj)
 *fill*         0x0000000020000e07        0x1 
 .bss._ccm_scratch
                0x0000000020000e08      0x10b zephyr/subsys/bluetooth/controller/libsubsys__bluetooth__controller.a(radio.c.obj)
 *fill*         0x0000000020000f13        0x1 
 .bss._pkt_empty
                0x0000000020000f14        0x3 zephyr/subsys/bluetooth/controller/libsubsys__bluetooth__controller.a(radio.c.obj)
 *fill*         0x0000000020000f17        0x1 
 .bss._pkt_scratch
                0x0000000020000f18      0x102 zephyr/subsys/bluetooth/controller/libsubsys__bluetooth__controller.a(radio.c.obj)
 *fill*         0x000000002000101a        0x2 
 .bss.radio_tmr_aa
                0x000000002000101c        0x4 zephyr/subsys/bluetooth/controller/libsubsys__bluetooth__controller.a(radio.c.obj)
 .bss.sfp_radio_isr
                0x0000000020001020        0x4 zephyr/subsys/bluetooth/controller/libsubsys__bluetooth__controller.a(radio.c.obj)
 .bss.sw_tifs_toggle
                0x0000000020001024        0x1 zephyr/subsys/bluetooth/controller/libsubsys__bluetooth__controller.a(radio.c.obj)
 *fill*         0x0000000020001025        0x3 
 .bss.link.8212
                0x0000000020001028        0x8 zephyr/subsys/bluetooth/controller/libsubsys__bluetooth__controller.a(ticker.c.obj)
 .bss.link.8219
                0x0000000020001030        0x8 zephyr/subsys/bluetooth/controller/libsubsys__bluetooth__controller.a(ticker.c.obj)
 .bss.link.8225
                0x0000000020001038        0x8 zephyr/subsys/bluetooth/controller/libsubsys__bluetooth__controller.a(ticker.c.obj)
 .bss.link.8229
                0x0000000020001040        0x8 zephyr/subsys/bluetooth/controller/libsubsys__bluetooth__controller.a(ticker.c.obj)
 .bss.link.8234
                0x0000000020001048        0x8 zephyr/subsys/bluetooth/controller/libsubsys__bluetooth__controller.a(ticker.c.obj)
 .bss.gpio_data_P0
                0x0000000020001050        0xc zephyr/drivers/gpio/libdrivers__gpio.a(gpio_nrf5.c.obj)
 .bss.gpiote_chan_mask
                0x000000002000105c        0x4 zephyr/drivers/gpio/libdrivers__gpio.a(gpio_nrf5.c.obj)
 .bss.entropy_nrf5_data
                0x0000000020001060       0x50 zephyr/drivers/entropy/libdrivers__entropy.a(entropy_nrf5.c.obj)
 .bss._idle_thread_s
                0x00000000200010b0       0x70 zephyr/kernel/libkernel.a(init.c.obj)
 .bss._main_thread_s
                0x0000000020001120       0x70 zephyr/kernel/libkernel.a(init.c.obj)
 .bss._time_slice_duration
                0x0000000020001190        0x4 zephyr/kernel/libkernel.a(sys_clock.c.obj)
                0x0000000020001190                _time_slice_duration
 .bss._time_slice_prio_ceiling
                0x0000000020001194        0x4 zephyr/kernel/libkernel.a(sys_clock.c.obj)
                0x0000000020001194                _time_slice_prio_ceiling
 *(COMMON)
 COMMON         0x0000000020001198       0xa8 zephyr/libzephyr.a(SEGGER_RTT.c.obj)
                0x0000000020001198                _SEGGER_RTT
 COMMON         0x0000000020001240       0xe0 zephyr/subsys/bluetooth/controller/libsubsys__bluetooth__controller.a(hci_driver.c.obj)
                0x0000000020001240                recv_thread_data
                0x00000000200012b0                prio_recv_thread_data
 COMMON         0x0000000020001320        0x1 zephyr/subsys/bluetooth/controller/libsubsys__bluetooth__controller.a(ll_filter.c.obj)
                0x0000000020001320                wl_anon
 *fill*         0x0000000020001321        0x3 
 COMMON         0x0000000020001324        0x8 zephyr/drivers/sensor/dht/libdrivers__sensor__dht.a(dht.c.obj)
                0x0000000020001324                dht_data
 COMMON         0x000000002000132c       0x2c zephyr/kernel/libkernel.a(sched.c.obj)
                0x000000002000132c                _kernel
 COMMON         0x0000000020001358       0x10 zephyr/kernel/libkernel.a(sys_clock.c.obj)
                0x0000000020001358                _handling_timeouts
                0x000000002000135c                _time_slice_elapsed
                0x0000000020001360                _sys_clock_tick_count
 COMMON         0x0000000020001368       0x80 zephyr/kernel/libkernel.a(system_work_q.c.obj)
                0x0000000020001368                k_sys_work_q
 *(.kernel_bss.*)
                0x00000000200013e8                __bss_end = ALIGN (0x4)

noinit          0x00000000200013e8     0x18f8
 *(.noinit)
 *(.noinit.*)
 .noinit."/home/mark/cs7ns2/zephyr/subsys/bluetooth/host/hci_core.c".1
                0x00000000200013e8       0x30 zephyr/subsys/bluetooth/host/libsubsys__bluetooth__host.a(hci_core.c.obj)
 .noinit."/home/mark/cs7ns2/zephyr/subsys/bluetooth/host/hci_core.c".2
                0x0000000020001418       0x98 zephyr/subsys/bluetooth/host/libsubsys__bluetooth__host.a(hci_core.c.obj)
 .noinit."/home/mark/cs7ns2/zephyr/subsys/bluetooth/host/hci_core.c".3
                0x00000000200014b0       0x48 zephyr/subsys/bluetooth/host/libsubsys__bluetooth__host.a(hci_core.c.obj)
 .noinit."/home/mark/cs7ns2/zephyr/subsys/bluetooth/host/hci_core.c".4
                0x00000000200014f8       0xe4 zephyr/subsys/bluetooth/host/libsubsys__bluetooth__host.a(hci_core.c.obj)
 *fill*         0x00000000200015dc        0x4 
 .noinit."/home/mark/cs7ns2/zephyr/subsys/bluetooth/controller/hci/hci_driver.c".0
                0x00000000200015e0      0x1c0 zephyr/subsys/bluetooth/controller/libsubsys__bluetooth__controller.a(hci_driver.c.obj)
 .noinit."/home/mark/cs7ns2/zephyr/subsys/bluetooth/controller/hci/hci_driver.c".1
                0x00000000200017a0      0x400 zephyr/subsys/bluetooth/controller/libsubsys__bluetooth__controller.a(hci_driver.c.obj)
 .noinit."/home/mark/cs7ns2/zephyr/kernel/init.c".1
                0x0000000020001ba0      0x400 zephyr/kernel/libkernel.a(init.c.obj)
                0x0000000020001ba0                _main_stack
 .noinit."/home/mark/cs7ns2/zephyr/kernel/init.c".2
                0x0000000020001fa0      0x140 zephyr/kernel/libkernel.a(init.c.obj)
                0x0000000020001fa0                _idle_stack
 .noinit."/home/mark/cs7ns2/zephyr/kernel/init.c".3
                0x00000000200020e0      0x800 zephyr/kernel/libkernel.a(init.c.obj)
                0x00000000200020e0                _interrupt_stack
 .noinit."/home/mark/cs7ns2/zephyr/kernel/system_work_q.c".0
                0x00000000200028e0      0x400 zephyr/kernel/libkernel.a(system_work_q.c.obj)
                0x00000000200028e0                sys_work_q_stack
 *(.kernel_noinit.*)

datas           0x0000000020002ce0      0x254 load address 0x000000000000b3dc
                0x0000000020002ce0                __data_ram_start = .
 *(.data)
 *(.data.*)
 .data.mpu_config
                0x0000000020002ce0        0x8 zephyr/libzephyr.a(mpu_regions.c.obj)
                0x0000000020002ce0                mpu_config
 .data.mpu_regions
                0x0000000020002ce8       0x18 zephyr/libzephyr.a(mpu_regions.c.obj)
 .data._char_out
                0x0000000020002d00        0x4 zephyr/libzephyr.a(printk.c.obj)
 .data.SystemCoreClock
                0x0000000020002d04        0x4 zephyr/libzephyr.a(system_nrf52.c.obj)
                0x0000000020002d04                SystemCoreClock
 .data._stdout_hook
                0x0000000020002d08        0x4 zephyr/lib/libc/minimal/liblib__libc__minimal.a(stdout_console.c.obj)
 *fill*         0x0000000020002d0c        0x4 
 .data.bt_dev   0x0000000020002d10       0xb8 zephyr/subsys/bluetooth/host/libsubsys__bluetooth__host.a(hci_core.c.obj)
                0x0000000020002d10                bt_dev
 .data.s_mfy_adv_stop.12267
                0x0000000020002dc8       0x10 zephyr/subsys/bluetooth/controller/libsubsys__bluetooth__controller.a(ctrl.c.obj)
 .data.s_mfy_radio_active.11936
                0x0000000020002dd8       0x10 zephyr/subsys/bluetooth/controller/libsubsys__bluetooth__controller.a(ctrl.c.obj)
 .data.s_mfy_radio_inactive.11948
                0x0000000020002de8       0x10 zephyr/subsys/bluetooth/controller/libsubsys__bluetooth__controller.a(ctrl.c.obj)
 .data.s_mfy_radio_inactive.12247
                0x0000000020002df8       0x10 zephyr/subsys/bluetooth/controller/libsubsys__bluetooth__controller.a(ctrl.c.obj)
 .data.s_mfy_radio_inactive.12562
                0x0000000020002e08       0x10 zephyr/subsys/bluetooth/controller/libsubsys__bluetooth__controller.a(ctrl.c.obj)
 .data.s_mfy_radio_stop.12099
                0x0000000020002e18       0x10 zephyr/subsys/bluetooth/controller/libsubsys__bluetooth__controller.a(ctrl.c.obj)
 .data.s_mfy_radio_stop.12261
                0x0000000020002e28       0x10 zephyr/subsys/bluetooth/controller/libsubsys__bluetooth__controller.a(ctrl.c.obj)
 .data.s_mfy_radio_stop.12570
                0x0000000020002e38       0x10 zephyr/subsys/bluetooth/controller/libsubsys__bluetooth__controller.a(ctrl.c.obj)
 .data.s_mfy_sched_offset.12315
                0x0000000020002e48       0x10 zephyr/subsys/bluetooth/controller/libsubsys__bluetooth__controller.a(ctrl.c.obj)
 .data.s_mfy_xtal_start.11960
                0x0000000020002e58       0x10 zephyr/subsys/bluetooth/controller/libsubsys__bluetooth__controller.a(ctrl.c.obj)
 .data.s_mfy_xtal_start.11978
                0x0000000020002e68       0x10 zephyr/subsys/bluetooth/controller/libsubsys__bluetooth__controller.a(ctrl.c.obj)
 .data.s_mfy_xtal_stop.11981
                0x0000000020002e78       0x20 zephyr/subsys/bluetooth/controller/libsubsys__bluetooth__controller.a(ctrl.c.obj)
 .data.s_mfy_xtal_stop.12254
                0x0000000020002e98       0x10 zephyr/subsys/bluetooth/controller/libsubsys__bluetooth__controller.a(ctrl.c.obj)
 .data.s_mfy_xtal_stop.12566
                0x0000000020002ea8       0x10 zephyr/subsys/bluetooth/controller/libsubsys__bluetooth__controller.a(ctrl.c.obj)
 .data.s_mfy_xtal_stop_calc.12119
                0x0000000020002eb8       0x10 zephyr/subsys/bluetooth/controller/libsubsys__bluetooth__controller.a(ctrl.c.obj)
 .data.event_mask
                0x0000000020002ec8        0x8 zephyr/subsys/bluetooth/controller/libsubsys__bluetooth__controller.a(hci.c.obj)
 .data.le_event_mask
                0x0000000020002ed0        0x8 zephyr/subsys/bluetooth/controller/libsubsys__bluetooth__controller.a(hci.c.obj)
 .data.m.8213   0x0000000020002ed8       0x10 zephyr/subsys/bluetooth/controller/libsubsys__bluetooth__controller.a(ticker.c.obj)
 .data.m.8220   0x0000000020002ee8       0x10 zephyr/subsys/bluetooth/controller/libsubsys__bluetooth__controller.a(ticker.c.obj)
 .data.m.8226   0x0000000020002ef8       0x10 zephyr/subsys/bluetooth/controller/libsubsys__bluetooth__controller.a(ticker.c.obj)
 .data.m.8230   0x0000000020002f08       0x10 zephyr/subsys/bluetooth/controller/libsubsys__bluetooth__controller.a(ticker.c.obj)
 .data.m.8235   0x0000000020002f18       0x10 zephyr/subsys/bluetooth/controller/libsubsys__bluetooth__controller.a(ticker.c.obj)
 .data._sys_idle_threshold_ticks
                0x0000000020002f28        0x4 zephyr/kernel/libkernel.a(idle.c.obj)
                0x0000000020002f28                _sys_idle_threshold_ticks
 .data._sys_idle_elapsed_ticks
                0x0000000020002f2c        0x4 zephyr/kernel/libkernel.a(sys_clock.c.obj)
                0x0000000020002f2c                _sys_idle_elapsed_ticks
 .data.sys_clock_hw_cycles_per_tick
                0x0000000020002f30        0x4 zephyr/kernel/libkernel.a(sys_clock.c.obj)
                0x0000000020002f30                sys_clock_hw_cycles_per_tick
 *(.kernel.*)
                0x000000000000b3dc                __data_rom_start = LOADADDR (datas)

initlevel       0x0000000020002f34       0x90 load address 0x000000000000b630
                0x0000000020002f34                __device_init_start = .
                0x0000000020002f34                __device_PRE_KERNEL_1_start = .
 *(SORT_BY_NAME(.init_PRE_KERNEL_1[0-9]))
 .init_PRE_KERNEL_10
                0x0000000020002f34        0xc zephyr/libzephyr.a(soc.c.obj)
 *(SORT_BY_NAME(.init_PRE_KERNEL_1[1-9][0-9]))
 .init_PRE_KERNEL_130
                0x0000000020002f40        0xc zephyr/kernel/libkernel.a(mempool.c.obj)
 .init_PRE_KERNEL_140
                0x0000000020002f4c        0xc zephyr/libzephyr.a(rtt_console.c.obj)
 .init_PRE_KERNEL_140
                0x0000000020002f58        0xc zephyr/arch/arm/core/cortex_m/mpu/libarch__arm__core__cortex_m__mpu.a(arm_mpu.c.obj)
 .init_PRE_KERNEL_150
                0x0000000020002f64       0x18 zephyr/libzephyr.a(nrf5_power_clock.c.obj)
 .init_PRE_KERNEL_150
                0x0000000020002f7c        0xc zephyr/drivers/entropy/libdrivers__entropy.a(entropy_nrf5.c.obj)
                0x0000000020002f88                __device_PRE_KERNEL_2_start = .
 *(SORT_BY_NAME(.init_PRE_KERNEL_2[0-9]))
 .init_PRE_KERNEL_20
                0x0000000020002f88        0xc zephyr/libzephyr.a(sys_clock_init.c.obj)
 *(SORT_BY_NAME(.init_PRE_KERNEL_2[1-9][0-9]))
                0x0000000020002f94                __device_POST_KERNEL_start = .
 *(SORT_BY_NAME(.init_POST_KERNEL[0-9]))
 *(SORT_BY_NAME(.init_POST_KERNEL[1-9][0-9]))
 .init_POST_KERNEL40
                0x0000000020002f94        0xc zephyr/drivers/gpio/libdrivers__gpio.a(gpio_nrf5.c.obj)
 .init_POST_KERNEL40
                0x0000000020002fa0        0xc zephyr/kernel/libkernel.a(system_work_q.c.obj)
 .init_POST_KERNEL50
                0x0000000020002fac        0xc zephyr/subsys/bluetooth/controller/libsubsys__bluetooth__controller.a(hci_driver.c.obj)
 .init_POST_KERNEL90
                0x0000000020002fb8        0xc zephyr/drivers/sensor/dht/libdrivers__sensor__dht.a(dht.c.obj)
                0x0000000020002fc4                __device_APPLICATION_start = .
 *(SORT_BY_NAME(.init_APPLICATION[0-9]))
 *(SORT_BY_NAME(.init_APPLICATION[1-9][0-9]))
                0x0000000020002fc4                __device_init_end = .

initlevel_error
                0x0000000020002f34        0x0
 *(SORT_BY_NAME(.init_[_A-Z0-9]*))
                0x0000000000000001                ASSERT ((SIZEOF (initlevel_error) == 0x0), Undefined initialization levels used.)

initshell       0x0000000020002fc4        0x0 load address 0x000000000000b6c0
                0x0000000020002fc4                __shell_module_start = .
 *(.shell_module_*)
                0x0000000020002fc4                __shell_module_end = .
                0x0000000020002fc4                __shell_cmd_start = .
 *(.shell_cmd_*)
                0x0000000020002fc4                __shell_cmd_end = .

log_dynamic_sections
                0x0000000020002fc4        0x0 load address 0x000000000000b6c0
                0x0000000020002fc4                __log_dynamic_start = .
 *(SORT_BY_NAME(.log_dynamic_*))
                0x0000000020002fc4                __log_dynamic_end = .

_static_thread_area
                0x0000000020002fc4        0x0 load address 0x000000000000b6c0
                0x0000000020002fc4                _static_thread_data_list_start = .
 *(SORT_BY_NAME(._static_thread_data.static.*))
                0x0000000020002fc4                _static_thread_data_list_end = .

_k_timer_area   0x0000000020002fc4        0x0 load address 0x000000000000b6c0
                0x0000000020002fc4                _k_timer_list_start = .
 *(SORT_BY_NAME(._k_timer.static.*))
                0x0000000020002fc4                _k_timer_list_end = .

_k_mem_slab_area
                0x0000000020002fc4        0x0 load address 0x000000000000b6c0
                0x0000000020002fc4                _k_mem_slab_list_start = .
 *(SORT_BY_NAME(._k_mem_slab.static.*))
                0x0000000020002fc4                _k_mem_slab_list_end = .

_k_mem_pool_area
                0x0000000020002fc4        0x0 load address 0x000000000000b6c0
 *(SORT_BY_NAME(._k_memory_pool.struct*))
                0x0000000020002fc4                _k_mem_pool_list_start = .
 *(SORT_BY_NAME(._k_mem_pool.static.*))
                0x0000000020002fc4                _k_mem_pool_list_end = .

_k_sem_area     0x0000000020002fc4       0x18 load address 0x000000000000b6c0
                0x0000000020002fc4                _k_sem_list_start = .
 *(SORT_BY_NAME(._k_sem.static.*))
 ._k_sem.static.sem_prio_recv
                0x0000000020002fc4       0x18 zephyr/subsys/bluetooth/controller/libsubsys__bluetooth__controller.a(hci_driver.c.obj)
                0x0000000020002fdc                _k_sem_list_end = .

_k_mutex_area   0x0000000020002fdc        0x0 load address 0x000000000000b6d8
                0x0000000020002fdc                _k_mutex_list_start = .
 *(SORT_BY_NAME(._k_mutex.static.*))
                0x0000000020002fdc                _k_mutex_list_end = .

_k_alert_area   0x0000000020002fdc        0x0 load address 0x000000000000b6d8
                0x0000000020002fdc                _k_alert_list_start = .
 *(SORT_BY_NAME(._k_alert.static.*))
                0x0000000020002fdc                _k_alert_list_end = .

_k_queue_area   0x0000000020002fdc       0x10 load address 0x000000000000b6d8
                0x0000000020002fdc                _k_queue_list_start = .
 *(SORT_BY_NAME(._k_queue.static.*))
 ._k_queue.static.recv_fifo
                0x0000000020002fdc       0x10 zephyr/subsys/bluetooth/controller/libsubsys__bluetooth__controller.a(hci_driver.c.obj)
                0x0000000020002fec                _k_queue_list_end = .

_k_stack_area   0x0000000020002fec        0x0 load address 0x000000000000b6e8
                0x0000000020002fec                _k_stack_list_start = .
 *(SORT_BY_NAME(._k_stack.static.*))
                0x0000000020002fec                _k_stack_list_end = .

_k_msgq_area    0x0000000020002fec        0x0 load address 0x000000000000b6e8
                0x0000000020002fec                _k_msgq_list_start = .
 *(SORT_BY_NAME(._k_msgq.static.*))
                0x0000000020002fec                _k_msgq_list_end = .

_k_mbox_area    0x0000000020002fec        0x0 load address 0x000000000000b6e8
                0x0000000020002fec                _k_mbox_list_start = .
 *(SORT_BY_NAME(._k_mbox.static.*))
                0x0000000020002fec                _k_mbox_list_end = .

_k_pipe_area    0x0000000020002fec        0x0 load address 0x000000000000b6e8
                0x0000000020002fec                _k_pipe_list_start = .
 *(SORT_BY_NAME(._k_pipe.static.*))
                0x0000000020002fec                _k_pipe_list_end = .

_k_work_area    0x0000000020002fec        0x0 load address 0x000000000000b6e8
                0x0000000020002fec                _k_work_list_start = .
 *(SORT_BY_NAME(._k_work.static.*))
                0x0000000020002fec                _k_work_list_end = .

_k_task_list    0x0000000020002fec        0x0 load address 0x000000000000b6e8
                0x0000000020002fec                _k_task_list_start = .
 *(._k_task_list.public.*)
 *(._k_task_list.private.*)
                0x0000000020002fec                _k_task_list_idle_start = .
 *(._k_task_list.idle.*)
 *(SORT_BY_NAME(._k_task_list*))
                0x0000000020002fec                _k_task_list_end = .

_k_event_list   0x0000000020002fec        0x0 load address 0x000000000000b6e8
                0x0000000020002fec                _k_event_list_start = .
 *(._k_event_list.event.*)
 *(SORT_BY_NAME(._k_event_list*))
                0x0000000020002fec                _k_event_list_end = .

_k_memory_pool  0x0000000020002fec        0x0 load address 0x000000000000b6e8
 *(._k_memory_pool.struct*)
 *(SORT_BY_NAME(._k_memory_pool.struct*))
                0x0000000020002fec                _k_mem_pool_start = .
 *(._k_memory_pool.*)
 *(SORT_BY_NAME(._k_memory_pool*))
                0x0000000020002fec                _k_mem_pool_end = .

_net_buf_pool_area
                0x0000000020002fec       0x40 load address 0x000000000000b6e8
                0x0000000020002fec                _net_buf_pool_list = .
 *(SORT_BY_NAME(._net_buf_pool.static.*))
 ._net_buf_pool.static.hci_cmd_pool
                0x0000000020002fec       0x20 zephyr/subsys/bluetooth/host/libsubsys__bluetooth__host.a(hci_core.c.obj)
                0x0000000020002fec                hci_cmd_pool
 ._net_buf_pool.static.hci_rx_pool
                0x000000002000300c       0x20 zephyr/subsys/bluetooth/host/libsubsys__bluetooth__host.a(hci_core.c.obj)
                0x000000002000300c                hci_rx_pool

net_if          0x000000002000302c        0x0 load address 0x000000000000b728
                0x000000002000302c                __net_if_start = .
 *(.net_if.*)
 *(SORT_BY_NAME(.net_if.*))
                0x000000002000302c                __net_if_end = .

net_if_dev      0x000000002000302c        0x0 load address 0x000000000000b728
                0x000000002000302c                __net_if_dev_start = .
 *(.net_if_dev.*)
 *(SORT_BY_NAME(.net_if_dev.*))
                0x000000002000302c                __net_if_dev_end = .

net_l2_data     0x000000002000302c        0x0 load address 0x000000000000b728
                0x000000002000302c                __net_l2_data_start = .
 *(.net_l2.data)
 *(SORT_BY_NAME(.net_l2.data*))
                0x000000002000302c                __net_l2_data_end = .
                0x000000002000302c                __data_ram_end = .
                0x000000002000302c                _image_ram_end = .
                0x000000002000302c                _end = .
                0x0000000020010000                __kernel_ram_end = 0x20010000
                0x0000000000010000                __kernel_ram_size = (__kernel_ram_end - __kernel_ram_start)

/DISCARD/
 *(.irq_info)
 *(.intList)
OUTPUT(zephyr/zephyr.elf elf32-littlearm)

.debug_info     0x0000000000000000    0x4e645
 .debug_info    0x0000000000000000       0xdd zephyr/CMakeFiles/kernel_elf.dir/isr_tables.c.obj
 .debug_info    0x00000000000000dd      0xd0a libapp.a(main.c.obj)
 .debug_info    0x0000000000000de7      0x113 zephyr/libzephyr.a(isr_tables.c.obj)
 .debug_info    0x0000000000000efa      0xf6e zephyr/libzephyr.a(soc.c.obj)
 .debug_info    0x0000000000001e68      0x145 zephyr/libzephyr.a(mpu_regions.c.obj)
 .debug_info    0x0000000000001fad      0x740 zephyr/libzephyr.a(thread_entry.c.obj)
 .debug_info    0x00000000000026ed     0x1442 zephyr/libzephyr.a(mempool.c.obj)
 .debug_info    0x0000000000003b2f      0xfce zephyr/libzephyr.a(printk.c.obj)
 .debug_info    0x0000000000004afd       0x37 zephyr/libzephyr.a(configs.c.obj)
 .debug_info    0x0000000000004b34     0x1099 zephyr/libzephyr.a(system_nrf52.c.obj)
 .debug_info    0x0000000000005bcd     0x1315 zephyr/libzephyr.a(SEGGER_RTT.c.obj)
 .debug_info    0x0000000000006ee2      0x9ae zephyr/libzephyr.a(rand32_entropy_device.c.obj)
 .debug_info    0x0000000000007890      0xa71 zephyr/libzephyr.a(rtt_console.c.obj)
 .debug_info    0x0000000000008301     0x182b zephyr/libzephyr.a(nrf5_power_clock.c.obj)
 .debug_info    0x0000000000009b2c      0x716 zephyr/libzephyr.a(sys_clock_init.c.obj)
 .debug_info    0x000000000000a242     0x1200 zephyr/libzephyr.a(nrf_rtc_timer.c.obj)
 .debug_info    0x000000000000b442       0x26 zephyr/arch/arm/core/libarch__arm__core.a(exc_exit.S.obj)
 .debug_info    0x000000000000b468      0xacc zephyr/arch/arm/core/libarch__arm__core.a(irq_init.c.obj)
 .debug_info    0x000000000000bf34      0x9ca zephyr/arch/arm/core/libarch__arm__core.a(swap.c.obj)
 .debug_info    0x000000000000c8fe       0x22 zephyr/arch/arm/core/libarch__arm__core.a(swap_helper.S.obj)
 .debug_info    0x000000000000c920      0xff9 zephyr/arch/arm/core/libarch__arm__core.a(fault.c.obj)
 .debug_info    0x000000000000d919      0xe9d zephyr/arch/arm/core/libarch__arm__core.a(irq_manage.c.obj)
 .debug_info    0x000000000000e7b6      0xacd zephyr/arch/arm/core/libarch__arm__core.a(thread.c.obj)
 .debug_info    0x000000000000f283       0x22 zephyr/arch/arm/core/libarch__arm__core.a(cpu_idle.S.obj)
 .debug_info    0x000000000000f2a5       0x26 zephyr/arch/arm/core/libarch__arm__core.a(fault_s.S.obj)
 .debug_info    0x000000000000f2cb      0xa6c zephyr/arch/arm/core/libarch__arm__core.a(fatal.c.obj)
 .debug_info    0x000000000000fd37      0x9e0 zephyr/arch/arm/core/libarch__arm__core.a(sys_fatal_error_handler.c.obj)
 .debug_info    0x0000000000010717      0xaca zephyr/arch/arm/core/libarch__arm__core.a(thread_abort.c.obj)
 .debug_info    0x00000000000111e1       0x26 zephyr/arch/arm/core/libarch__arm__core.a(isr_wrapper.S.obj)
 .debug_info    0x0000000000011207       0x26 zephyr/arch/arm/core/cortex_m/libarch__arm__core__cortex_m.a(reset.S.obj)
 .debug_info    0x000000000001122d       0x26 zephyr/arch/arm/core/cortex_m/libarch__arm__core__cortex_m.a(nmi_on_reset.S.obj)
 .debug_info    0x0000000000011253      0x9d1 zephyr/arch/arm/core/cortex_m/libarch__arm__core__cortex_m.a(prep_c.c.obj)
 .debug_info    0x0000000000011c24      0x665 zephyr/arch/arm/core/cortex_m/libarch__arm__core__cortex_m.a(nmi.c.obj)
 .debug_info    0x0000000000012289      0xc01 zephyr/arch/arm/core/cortex_m/mpu/libarch__arm__core__cortex_m__mpu.a(arm_mpu.c.obj)
 .debug_info    0x0000000000012e8a      0x54d zephyr/lib/libc/minimal/liblib__libc__minimal.a(string.c.obj)
 .debug_info    0x00000000000133d7      0x59d zephyr/lib/libc/minimal/liblib__libc__minimal.a(stdout_console.c.obj)
 .debug_info    0x0000000000013974     0x4f70 zephyr/subsys/bluetooth/host/libsubsys__bluetooth__host.a(hci_core.c.obj)
 .debug_info    0x00000000000188e4      0x4d7 zephyr/subsys/bluetooth/controller/libsubsys__bluetooth__controller.a(mem.c.obj)
 .debug_info    0x0000000000018dbb      0x1fe zephyr/subsys/bluetooth/controller/libsubsys__bluetooth__controller.a(memq.c.obj)
 .debug_info    0x0000000000018fb9      0x4ce zephyr/subsys/bluetooth/controller/libsubsys__bluetooth__controller.a(mayfly.c.obj)
 .debug_info    0x0000000000019487       0xcd zephyr/subsys/bluetooth/controller/libsubsys__bluetooth__controller.a(util.c.obj)
 .debug_info    0x0000000000019554     0x259a zephyr/subsys/bluetooth/controller/libsubsys__bluetooth__controller.a(ticker.c.obj)
 .debug_info    0x000000000001baee      0x1a5 zephyr/subsys/bluetooth/controller/libsubsys__bluetooth__controller.a(ll_addr.c.obj)
 .debug_info    0x000000000001bc93       0xff zephyr/subsys/bluetooth/controller/libsubsys__bluetooth__controller.a(ll_tx_pwr.c.obj)
 .debug_info    0x000000000001bd92     0xa343 zephyr/subsys/bluetooth/controller/libsubsys__bluetooth__controller.a(ctrl.c.obj)
 .debug_info    0x00000000000260d5     0x122f zephyr/subsys/bluetooth/controller/libsubsys__bluetooth__controller.a(ll.c.obj)
 .debug_info    0x0000000000027304     0x151d zephyr/subsys/bluetooth/controller/libsubsys__bluetooth__controller.a(hci_driver.c.obj)
 .debug_info    0x0000000000028821     0x4a4d zephyr/subsys/bluetooth/controller/libsubsys__bluetooth__controller.a(hci.c.obj)
 .debug_info    0x000000000002d26e      0xa2b zephyr/subsys/bluetooth/controller/libsubsys__bluetooth__controller.a(crypto.c.obj)
 .debug_info    0x000000000002dc99     0x102f zephyr/subsys/bluetooth/controller/libsubsys__bluetooth__controller.a(ll_adv.c.obj)
 .debug_info    0x000000000002ecc8      0xcc2 zephyr/subsys/bluetooth/controller/libsubsys__bluetooth__controller.a(ll_filter.c.obj)
 .debug_info    0x000000000002f98a      0xd34 zephyr/subsys/bluetooth/controller/libsubsys__bluetooth__controller.a(cntr.c.obj)
 .debug_info    0x00000000000306be     0x130b zephyr/subsys/bluetooth/controller/libsubsys__bluetooth__controller.a(ecb.c.obj)
 .debug_info    0x00000000000319c9     0x32b2 zephyr/subsys/bluetooth/controller/libsubsys__bluetooth__controller.a(radio.c.obj)
 .debug_info    0x0000000000034c7b      0xc97 zephyr/subsys/bluetooth/controller/libsubsys__bluetooth__controller.a(mayfly.c.obj)
 .debug_info    0x0000000000035912      0xb31 zephyr/subsys/bluetooth/controller/libsubsys__bluetooth__controller.a(ticker.c.obj)
 .debug_info    0x0000000000036443     0x29b2 zephyr/subsys/net/libsubsys__net.a(buf.c.obj)
 .debug_info    0x0000000000038df5     0x181b zephyr/drivers/gpio/libdrivers__gpio.a(gpio_nrf5.c.obj)
 .debug_info    0x000000000003a610     0x169e zephyr/drivers/sensor/dht/libdrivers__sensor__dht.a(dht.c.obj)
 .debug_info    0x000000000003bcae     0x14f6 zephyr/drivers/entropy/libdrivers__entropy.a(entropy_nrf5.c.obj)
 .debug_info    0x000000000003d1a4      0x861 zephyr/kernel/libkernel.a(device.c.obj)
 .debug_info    0x000000000003da05      0x843 zephyr/kernel/libkernel.a(errno.c.obj)
 .debug_info    0x000000000003e248      0xa19 zephyr/kernel/libkernel.a(idle.c.obj)
 .debug_info    0x000000000003ec61     0x1c91 zephyr/kernel/libkernel.a(init.c.obj)
 .debug_info    0x00000000000408f2     0x10e6 zephyr/kernel/libkernel.a(mempool.c.obj)
 .debug_info    0x00000000000419d8     0x1b86 zephyr/kernel/libkernel.a(queue.c.obj)
 .debug_info    0x000000000004355e     0x2f28 zephyr/kernel/libkernel.a(sched.c.obj)
 .debug_info    0x0000000000046486      0xdd4 zephyr/kernel/libkernel.a(sem.c.obj)
 .debug_info    0x000000000004725a     0x1221 zephyr/kernel/libkernel.a(sys_clock.c.obj)
 .debug_info    0x000000000004847b      0x7bc zephyr/kernel/libkernel.a(system_work_q.c.obj)
 .debug_info    0x0000000000048c37     0x1d60 zephyr/kernel/libkernel.a(thread.c.obj)
 .debug_info    0x000000000004a997     0x1aac zephyr/kernel/libkernel.a(work_q.c.obj)
 .debug_info    0x000000000004c443     0x169e zephyr/kernel/libkernel.a(poll.c.obj)
 .debug_info    0x000000000004dae1      0xb64 zephyr/CMakeFiles/offsets.dir/arch/arm/core/offsets/offsets.c.obj

.debug_abbrev   0x0000000000000000     0xd185
 .debug_abbrev  0x0000000000000000       0xb7 zephyr/CMakeFiles/kernel_elf.dir/isr_tables.c.obj
 .debug_abbrev  0x00000000000000b7      0x2d5 libapp.a(main.c.obj)
 .debug_abbrev  0x000000000000038c       0xc6 zephyr/libzephyr.a(isr_tables.c.obj)
 .debug_abbrev  0x0000000000000452      0x2e3 zephyr/libzephyr.a(soc.c.obj)
 .debug_abbrev  0x0000000000000735       0xb8 zephyr/libzephyr.a(mpu_regions.c.obj)
 .debug_abbrev  0x00000000000007ed      0x217 zephyr/libzephyr.a(thread_entry.c.obj)
 .debug_abbrev  0x0000000000000a04      0x4a4 zephyr/libzephyr.a(mempool.c.obj)
 .debug_abbrev  0x0000000000000ea8      0x426 zephyr/libzephyr.a(printk.c.obj)
 .debug_abbrev  0x00000000000012ce       0x2c zephyr/libzephyr.a(configs.c.obj)
 .debug_abbrev  0x00000000000012fa      0x202 zephyr/libzephyr.a(system_nrf52.c.obj)
 .debug_abbrev  0x00000000000014fc      0x275 zephyr/libzephyr.a(SEGGER_RTT.c.obj)
 .debug_abbrev  0x0000000000001771      0x274 zephyr/libzephyr.a(rand32_entropy_device.c.obj)
 .debug_abbrev  0x00000000000019e5      0x2d7 zephyr/libzephyr.a(rtt_console.c.obj)
 .debug_abbrev  0x0000000000001cbc      0x3f7 zephyr/libzephyr.a(nrf5_power_clock.c.obj)
 .debug_abbrev  0x00000000000020b3      0x192 zephyr/libzephyr.a(sys_clock_init.c.obj)
 .debug_abbrev  0x0000000000002245      0x43f zephyr/libzephyr.a(nrf_rtc_timer.c.obj)
 .debug_abbrev  0x0000000000002684       0x14 zephyr/arch/arm/core/libarch__arm__core.a(exc_exit.S.obj)
 .debug_abbrev  0x0000000000002698      0x22b zephyr/arch/arm/core/libarch__arm__core.a(irq_init.c.obj)
 .debug_abbrev  0x00000000000028c3      0x1f3 zephyr/arch/arm/core/libarch__arm__core.a(swap.c.obj)
 .debug_abbrev  0x0000000000002ab6       0x12 zephyr/arch/arm/core/libarch__arm__core.a(swap_helper.S.obj)
 .debug_abbrev  0x0000000000002ac8      0x373 zephyr/arch/arm/core/libarch__arm__core.a(fault.c.obj)
 .debug_abbrev  0x0000000000002e3b      0x2fb zephyr/arch/arm/core/libarch__arm__core.a(irq_manage.c.obj)
 .debug_abbrev  0x0000000000003136      0x27a zephyr/arch/arm/core/libarch__arm__core.a(thread.c.obj)
 .debug_abbrev  0x00000000000033b0       0x12 zephyr/arch/arm/core/libarch__arm__core.a(cpu_idle.S.obj)
 .debug_abbrev  0x00000000000033c2       0x14 zephyr/arch/arm/core/libarch__arm__core.a(fault_s.S.obj)
 .debug_abbrev  0x00000000000033d6      0x298 zephyr/arch/arm/core/libarch__arm__core.a(fatal.c.obj)
 .debug_abbrev  0x000000000000366e      0x25b zephyr/arch/arm/core/libarch__arm__core.a(sys_fatal_error_handler.c.obj)
 .debug_abbrev  0x00000000000038c9      0x271 zephyr/arch/arm/core/libarch__arm__core.a(thread_abort.c.obj)
 .debug_abbrev  0x0000000000003b3a       0x14 zephyr/arch/arm/core/libarch__arm__core.a(isr_wrapper.S.obj)
 .debug_abbrev  0x0000000000003b4e       0x14 zephyr/arch/arm/core/cortex_m/libarch__arm__core__cortex_m.a(reset.S.obj)
 .debug_abbrev  0x0000000000003b62       0x14 zephyr/arch/arm/core/cortex_m/libarch__arm__core__cortex_m.a(nmi_on_reset.S.obj)
 .debug_abbrev  0x0000000000003b76      0x1eb zephyr/arch/arm/core/cortex_m/libarch__arm__core__cortex_m.a(prep_c.c.obj)
 .debug_abbrev  0x0000000000003d61      0x1a5 zephyr/arch/arm/core/cortex_m/libarch__arm__core__cortex_m.a(nmi.c.obj)
 .debug_abbrev  0x0000000000003f06      0x2dd zephyr/arch/arm/core/cortex_m/mpu/libarch__arm__core__cortex_m__mpu.a(arm_mpu.c.obj)
 .debug_abbrev  0x00000000000041e3      0x18d zephyr/lib/libc/minimal/liblib__libc__minimal.a(string.c.obj)
 .debug_abbrev  0x0000000000004370      0x239 zephyr/lib/libc/minimal/liblib__libc__minimal.a(stdout_console.c.obj)
 .debug_abbrev  0x00000000000045a9      0x6da zephyr/subsys/bluetooth/host/libsubsys__bluetooth__host.a(hci_core.c.obj)
 .debug_abbrev  0x0000000000004c83      0x15f zephyr/subsys/bluetooth/controller/libsubsys__bluetooth__controller.a(mem.c.obj)
 .debug_abbrev  0x0000000000004de2      0x139 zephyr/subsys/bluetooth/controller/libsubsys__bluetooth__controller.a(memq.c.obj)
 .debug_abbrev  0x0000000000004f1b      0x1a3 zephyr/subsys/bluetooth/controller/libsubsys__bluetooth__controller.a(mayfly.c.obj)
 .debug_abbrev  0x00000000000050be       0x92 zephyr/subsys/bluetooth/controller/libsubsys__bluetooth__controller.a(util.c.obj)
 .debug_abbrev  0x0000000000005150      0x4fe zephyr/subsys/bluetooth/controller/libsubsys__bluetooth__controller.a(ticker.c.obj)
 .debug_abbrev  0x000000000000564e       0xe4 zephyr/subsys/bluetooth/controller/libsubsys__bluetooth__controller.a(ll_addr.c.obj)
 .debug_abbrev  0x0000000000005732       0xa1 zephyr/subsys/bluetooth/controller/libsubsys__bluetooth__controller.a(ll_tx_pwr.c.obj)
 .debug_abbrev  0x00000000000057d3      0x6f2 zephyr/subsys/bluetooth/controller/libsubsys__bluetooth__controller.a(ctrl.c.obj)
 .debug_abbrev  0x0000000000005ec5      0x3da zephyr/subsys/bluetooth/controller/libsubsys__bluetooth__controller.a(ll.c.obj)
 .debug_abbrev  0x000000000000629f      0x443 zephyr/subsys/bluetooth/controller/libsubsys__bluetooth__controller.a(hci_driver.c.obj)
 .debug_abbrev  0x00000000000066e2      0x5f9 zephyr/subsys/bluetooth/controller/libsubsys__bluetooth__controller.a(hci.c.obj)
 .debug_abbrev  0x0000000000006cdb      0x245 zephyr/subsys/bluetooth/controller/libsubsys__bluetooth__controller.a(crypto.c.obj)
 .debug_abbrev  0x0000000000006f20      0x37a zephyr/subsys/bluetooth/controller/libsubsys__bluetooth__controller.a(ll_adv.c.obj)
 .debug_abbrev  0x000000000000729a      0x34a zephyr/subsys/bluetooth/controller/libsubsys__bluetooth__controller.a(ll_filter.c.obj)
 .debug_abbrev  0x00000000000075e4      0x302 zephyr/subsys/bluetooth/controller/libsubsys__bluetooth__controller.a(cntr.c.obj)
 .debug_abbrev  0x00000000000078e6      0x3d3 zephyr/subsys/bluetooth/controller/libsubsys__bluetooth__controller.a(ecb.c.obj)
 .debug_abbrev  0x0000000000007cb9      0x679 zephyr/subsys/bluetooth/controller/libsubsys__bluetooth__controller.a(radio.c.obj)
 .debug_abbrev  0x0000000000008332      0x2fd zephyr/subsys/bluetooth/controller/libsubsys__bluetooth__controller.a(mayfly.c.obj)
 .debug_abbrev  0x000000000000862f      0x286 zephyr/subsys/bluetooth/controller/libsubsys__bluetooth__controller.a(ticker.c.obj)
 .debug_abbrev  0x00000000000088b5      0x5d3 zephyr/subsys/net/libsubsys__net.a(buf.c.obj)
 .debug_abbrev  0x0000000000008e88      0x4dc zephyr/drivers/gpio/libdrivers__gpio.a(gpio_nrf5.c.obj)
 .debug_abbrev  0x0000000000009364      0x385 zephyr/drivers/sensor/dht/libdrivers__sensor__dht.a(dht.c.obj)
 .debug_abbrev  0x00000000000096e9      0x466 zephyr/drivers/entropy/libdrivers__entropy.a(entropy_nrf5.c.obj)
 .debug_abbrev  0x0000000000009b4f      0x285 zephyr/kernel/libkernel.a(device.c.obj)
 .debug_abbrev  0x0000000000009dd4      0x1cc zephyr/kernel/libkernel.a(errno.c.obj)
 .debug_abbrev  0x0000000000009fa0      0x2f6 zephyr/kernel/libkernel.a(idle.c.obj)
 .debug_abbrev  0x000000000000a296      0x565 zephyr/kernel/libkernel.a(init.c.obj)
 .debug_abbrev  0x000000000000a7fb      0x3b2 zephyr/kernel/libkernel.a(mempool.c.obj)
 .debug_abbrev  0x000000000000abad      0x4bf zephyr/kernel/libkernel.a(queue.c.obj)
 .debug_abbrev  0x000000000000b06c      0x63e zephyr/kernel/libkernel.a(sched.c.obj)
 .debug_abbrev  0x000000000000b6aa      0x373 zephyr/kernel/libkernel.a(sem.c.obj)
 .debug_abbrev  0x000000000000ba1d      0x408 zephyr/kernel/libkernel.a(sys_clock.c.obj)
 .debug_abbrev  0x000000000000be25      0x211 zephyr/kernel/libkernel.a(system_work_q.c.obj)
 .debug_abbrev  0x000000000000c036      0x593 zephyr/kernel/libkernel.a(thread.c.obj)
 .debug_abbrev  0x000000000000c5c9      0x4e8 zephyr/kernel/libkernel.a(work_q.c.obj)
 .debug_abbrev  0x000000000000cab1      0x50e zephyr/kernel/libkernel.a(poll.c.obj)
 .debug_abbrev  0x000000000000cfbf      0x1c6 zephyr/CMakeFiles/offsets.dir/arch/arm/core/offsets/offsets.c.obj

.debug_aranges  0x0000000000000000     0x1ad0
 .debug_aranges
                0x0000000000000000       0x18 zephyr/CMakeFiles/kernel_elf.dir/isr_tables.c.obj
 .debug_aranges
                0x0000000000000018       0x20 libapp.a(main.c.obj)
 .debug_aranges
                0x0000000000000038       0x18 zephyr/libzephyr.a(isr_tables.c.obj)
 .debug_aranges
                0x0000000000000050       0x20 zephyr/libzephyr.a(soc.c.obj)
 .debug_aranges
                0x0000000000000070       0x18 zephyr/libzephyr.a(mpu_regions.c.obj)
 .debug_aranges
                0x0000000000000088       0x20 zephyr/libzephyr.a(thread_entry.c.obj)
 .debug_aranges
                0x00000000000000a8       0x58 zephyr/libzephyr.a(mempool.c.obj)
 .debug_aranges
                0x0000000000000100       0x78 zephyr/libzephyr.a(printk.c.obj)
 .debug_aranges
                0x0000000000000178       0x20 zephyr/libzephyr.a(configs.c.obj)
 .debug_aranges
                0x0000000000000198       0x38 zephyr/libzephyr.a(system_nrf52.c.obj)
 .debug_aranges
                0x00000000000001d0      0x110 zephyr/libzephyr.a(SEGGER_RTT.c.obj)
 .debug_aranges
                0x00000000000002e0       0x20 zephyr/libzephyr.a(rand32_entropy_device.c.obj)
 .debug_aranges
                0x0000000000000300       0x28 zephyr/libzephyr.a(rtt_console.c.obj)
 .debug_aranges
                0x0000000000000328       0x40 zephyr/libzephyr.a(nrf5_power_clock.c.obj)
 .debug_aranges
                0x0000000000000368       0x18 zephyr/libzephyr.a(sys_clock_init.c.obj)
 .debug_aranges
                0x0000000000000380       0x50 zephyr/libzephyr.a(nrf_rtc_timer.c.obj)
 .debug_aranges
                0x00000000000003d0       0x20 zephyr/arch/arm/core/libarch__arm__core.a(exc_exit.S.obj)
 .debug_aranges
                0x00000000000003f0       0x20 zephyr/arch/arm/core/libarch__arm__core.a(irq_init.c.obj)
 .debug_aranges
                0x0000000000000410       0x20 zephyr/arch/arm/core/libarch__arm__core.a(swap.c.obj)
 .debug_aranges
                0x0000000000000430       0x28 zephyr/arch/arm/core/libarch__arm__core.a(swap_helper.S.obj)
 .debug_aranges
                0x0000000000000458       0x40 zephyr/arch/arm/core/libarch__arm__core.a(fault.c.obj)
 .debug_aranges
                0x0000000000000498       0x48 zephyr/arch/arm/core/libarch__arm__core.a(irq_manage.c.obj)
 .debug_aranges
                0x00000000000004e0       0x20 zephyr/arch/arm/core/libarch__arm__core.a(thread.c.obj)
 .debug_aranges
                0x0000000000000500       0x40 zephyr/arch/arm/core/libarch__arm__core.a(cpu_idle.S.obj)
 .debug_aranges
                0x0000000000000540       0x20 zephyr/arch/arm/core/libarch__arm__core.a(fault_s.S.obj)
 .debug_aranges
                0x0000000000000560       0x30 zephyr/arch/arm/core/libarch__arm__core.a(fatal.c.obj)
 .debug_aranges
                0x0000000000000590       0x20 zephyr/arch/arm/core/libarch__arm__core.a(sys_fatal_error_handler.c.obj)
 .debug_aranges
                0x00000000000005b0       0x20 zephyr/arch/arm/core/libarch__arm__core.a(thread_abort.c.obj)
 .debug_aranges
                0x00000000000005d0       0x20 zephyr/arch/arm/core/libarch__arm__core.a(isr_wrapper.S.obj)
 .debug_aranges
                0x00000000000005f0       0x20 zephyr/arch/arm/core/cortex_m/libarch__arm__core__cortex_m.a(reset.S.obj)
 .debug_aranges
                0x0000000000000610       0x20 zephyr/arch/arm/core/cortex_m/libarch__arm__core__cortex_m.a(nmi_on_reset.S.obj)
 .debug_aranges
                0x0000000000000630       0x20 zephyr/arch/arm/core/cortex_m/libarch__arm__core__cortex_m.a(prep_c.c.obj)
 .debug_aranges
                0x0000000000000650       0x20 zephyr/arch/arm/core/cortex_m/libarch__arm__core__cortex_m.a(nmi.c.obj)
 .debug_aranges
                0x0000000000000670       0x30 zephyr/arch/arm/core/cortex_m/mpu/libarch__arm__core__cortex_m__mpu.a(arm_mpu.c.obj)
 .debug_aranges
                0x00000000000006a0       0x88 zephyr/lib/libc/minimal/liblib__libc__minimal.a(string.c.obj)
 .debug_aranges
                0x0000000000000728       0x58 zephyr/lib/libc/minimal/liblib__libc__minimal.a(stdout_console.c.obj)
 .debug_aranges
                0x0000000000000780      0x130 zephyr/subsys/bluetooth/host/libsubsys__bluetooth__host.a(hci_core.c.obj)
 .debug_aranges
                0x00000000000008b0       0x60 zephyr/subsys/bluetooth/controller/libsubsys__bluetooth__controller.a(mem.c.obj)
 .debug_aranges
                0x0000000000000910       0x38 zephyr/subsys/bluetooth/controller/libsubsys__bluetooth__controller.a(memq.c.obj)
 .debug_aranges
                0x0000000000000948       0x38 zephyr/subsys/bluetooth/controller/libsubsys__bluetooth__controller.a(mayfly.c.obj)
 .debug_aranges
                0x0000000000000980       0x20 zephyr/subsys/bluetooth/controller/libsubsys__bluetooth__controller.a(util.c.obj)
 .debug_aranges
                0x00000000000009a0       0x98 zephyr/subsys/bluetooth/controller/libsubsys__bluetooth__controller.a(ticker.c.obj)
 .debug_aranges
                0x0000000000000a38       0x28 zephyr/subsys/bluetooth/controller/libsubsys__bluetooth__controller.a(ll_addr.c.obj)
 .debug_aranges
                0x0000000000000a60       0x28 zephyr/subsys/bluetooth/controller/libsubsys__bluetooth__controller.a(ll_tx_pwr.c.obj)
 .debug_aranges
                0x0000000000000a88      0x380 zephyr/subsys/bluetooth/controller/libsubsys__bluetooth__controller.a(ctrl.c.obj)
 .debug_aranges
                0x0000000000000e08       0x50 zephyr/subsys/bluetooth/controller/libsubsys__bluetooth__controller.a(ll.c.obj)
 .debug_aranges
                0x0000000000000e58       0x40 zephyr/subsys/bluetooth/controller/libsubsys__bluetooth__controller.a(hci_driver.c.obj)
 .debug_aranges
                0x0000000000000e98       0x88 zephyr/subsys/bluetooth/controller/libsubsys__bluetooth__controller.a(hci.c.obj)
 .debug_aranges
                0x0000000000000f20       0x30 zephyr/subsys/bluetooth/controller/libsubsys__bluetooth__controller.a(crypto.c.obj)
 .debug_aranges
                0x0000000000000f50       0x40 zephyr/subsys/bluetooth/controller/libsubsys__bluetooth__controller.a(ll_adv.c.obj)
 .debug_aranges
                0x0000000000000f90       0x48 zephyr/subsys/bluetooth/controller/libsubsys__bluetooth__controller.a(ll_filter.c.obj)
 .debug_aranges
                0x0000000000000fd8       0x40 zephyr/subsys/bluetooth/controller/libsubsys__bluetooth__controller.a(cntr.c.obj)
 .debug_aranges
                0x0000000000001018       0x50 zephyr/subsys/bluetooth/controller/libsubsys__bluetooth__controller.a(ecb.c.obj)
 .debug_aranges
                0x0000000000001068      0x240 zephyr/subsys/bluetooth/controller/libsubsys__bluetooth__controller.a(radio.c.obj)
 .debug_aranges
                0x00000000000012a8       0x38 zephyr/subsys/bluetooth/controller/libsubsys__bluetooth__controller.a(mayfly.c.obj)
 .debug_aranges
                0x00000000000012e0       0x30 zephyr/subsys/bluetooth/controller/libsubsys__bluetooth__controller.a(ticker.c.obj)
 .debug_aranges
                0x0000000000001310      0x178 zephyr/subsys/net/libsubsys__net.a(buf.c.obj)
 .debug_aranges
                0x0000000000001488       0x78 zephyr/drivers/gpio/libdrivers__gpio.a(gpio_nrf5.c.obj)
 .debug_aranges
                0x0000000000001500       0x40 zephyr/drivers/sensor/dht/libdrivers__sensor__dht.a(dht.c.obj)
 .debug_aranges
                0x0000000000001540       0x50 zephyr/drivers/entropy/libdrivers__entropy.a(entropy_nrf5.c.obj)
 .debug_aranges
                0x0000000000001590       0x30 zephyr/kernel/libkernel.a(device.c.obj)
 .debug_aranges
                0x00000000000015c0       0x20 zephyr/kernel/libkernel.a(errno.c.obj)
 .debug_aranges
                0x00000000000015e0       0x28 zephyr/kernel/libkernel.a(idle.c.obj)
 .debug_aranges
                0x0000000000001608       0x50 zephyr/kernel/libkernel.a(init.c.obj)
 .debug_aranges
                0x0000000000001658       0x50 zephyr/kernel/libkernel.a(mempool.c.obj)
 .debug_aranges
                0x00000000000016a8       0x78 zephyr/kernel/libkernel.a(queue.c.obj)
 .debug_aranges
                0x0000000000001720      0x170 zephyr/kernel/libkernel.a(sched.c.obj)
 .debug_aranges
                0x0000000000001890       0x38 zephyr/kernel/libkernel.a(sem.c.obj)
 .debug_aranges
                0x00000000000018c8       0x50 zephyr/kernel/libkernel.a(sys_clock.c.obj)
 .debug_aranges
                0x0000000000001918       0x20 zephyr/kernel/libkernel.a(system_work_q.c.obj)
 .debug_aranges
                0x0000000000001938       0xc8 zephyr/kernel/libkernel.a(thread.c.obj)
 .debug_aranges
                0x0000000000001a00       0x50 zephyr/kernel/libkernel.a(work_q.c.obj)
 .debug_aranges
                0x0000000000001a50       0x60 zephyr/kernel/libkernel.a(poll.c.obj)
 .debug_aranges
                0x0000000000001ab0       0x20 zephyr/CMakeFiles/offsets.dir/arch/arm/core/offsets/offsets.c.obj

.debug_line     0x0000000000000000    0x132cf
 .debug_line    0x0000000000000000       0x9a zephyr/CMakeFiles/kernel_elf.dir/isr_tables.c.obj
 .debug_line    0x000000000000009a      0x23f libapp.a(main.c.obj)
 .debug_line    0x00000000000002d9       0xb8 zephyr/libzephyr.a(isr_tables.c.obj)
 .debug_line    0x0000000000000391      0x397 zephyr/libzephyr.a(soc.c.obj)
 .debug_line    0x0000000000000728      0x1ab zephyr/libzephyr.a(mpu_regions.c.obj)
 .debug_line    0x00000000000008d3      0x1fd zephyr/libzephyr.a(thread_entry.c.obj)
 .debug_line    0x0000000000000ad0      0x4af zephyr/libzephyr.a(mempool.c.obj)
 .debug_line    0x0000000000000f7f      0x40e zephyr/libzephyr.a(printk.c.obj)
 .debug_line    0x000000000000138d      0x15a zephyr/libzephyr.a(configs.c.obj)
 .debug_line    0x00000000000014e7      0x1ea zephyr/libzephyr.a(system_nrf52.c.obj)
 .debug_line    0x00000000000016d1      0x584 zephyr/libzephyr.a(SEGGER_RTT.c.obj)
 .debug_line    0x0000000000001c55      0x2cb zephyr/libzephyr.a(rand32_entropy_device.c.obj)
 .debug_line    0x0000000000001f20      0x2dd zephyr/libzephyr.a(rtt_console.c.obj)
 .debug_line    0x00000000000021fd      0x4fb zephyr/libzephyr.a(nrf5_power_clock.c.obj)
 .debug_line    0x00000000000026f8      0x20d zephyr/libzephyr.a(sys_clock_init.c.obj)
 .debug_line    0x0000000000002905      0x4c9 zephyr/libzephyr.a(nrf_rtc_timer.c.obj)
 .debug_line    0x0000000000002dce       0x75 zephyr/arch/arm/core/libarch__arm__core.a(exc_exit.S.obj)
 .debug_line    0x0000000000002e43      0x2d0 zephyr/arch/arm/core/libarch__arm__core.a(irq_init.c.obj)
 .debug_line    0x0000000000003113      0x376 zephyr/arch/arm/core/libarch__arm__core.a(swap.c.obj)
 .debug_line    0x0000000000003489       0xae zephyr/arch/arm/core/libarch__arm__core.a(swap_helper.S.obj)
 .debug_line    0x0000000000003537      0x447 zephyr/arch/arm/core/libarch__arm__core.a(fault.c.obj)
 .debug_line    0x000000000000397e      0x43c zephyr/arch/arm/core/libarch__arm__core.a(irq_manage.c.obj)
 .debug_line    0x0000000000003dba      0x3e3 zephyr/arch/arm/core/libarch__arm__core.a(thread.c.obj)
 .debug_line    0x000000000000419d       0xb7 zephyr/arch/arm/core/libarch__arm__core.a(cpu_idle.S.obj)
 .debug_line    0x0000000000004254       0x70 zephyr/arch/arm/core/libarch__arm__core.a(fault_s.S.obj)
 .debug_line    0x00000000000042c4      0x3ea zephyr/arch/arm/core/libarch__arm__core.a(fatal.c.obj)
 .debug_line    0x00000000000046ae      0x3cc zephyr/arch/arm/core/libarch__arm__core.a(sys_fatal_error_handler.c.obj)
 .debug_line    0x0000000000004a7a      0x3e3 zephyr/arch/arm/core/libarch__arm__core.a(thread_abort.c.obj)
 .debug_line    0x0000000000004e5d       0x83 zephyr/arch/arm/core/libarch__arm__core.a(isr_wrapper.S.obj)
 .debug_line    0x0000000000004ee0       0x76 zephyr/arch/arm/core/cortex_m/libarch__arm__core__cortex_m.a(reset.S.obj)
 .debug_line    0x0000000000004f56       0x6f zephyr/arch/arm/core/cortex_m/libarch__arm__core__cortex_m.a(nmi_on_reset.S.obj)
 .debug_line    0x0000000000004fc5      0x32f zephyr/arch/arm/core/cortex_m/libarch__arm__core__cortex_m.a(prep_c.c.obj)
 .debug_line    0x00000000000052f4      0x213 zephyr/arch/arm/core/cortex_m/libarch__arm__core__cortex_m.a(nmi.c.obj)
 .debug_line    0x0000000000005507      0x424 zephyr/arch/arm/core/cortex_m/mpu/libarch__arm__core__cortex_m__mpu.a(arm_mpu.c.obj)
 .debug_line    0x000000000000592b      0x22e zephyr/lib/libc/minimal/liblib__libc__minimal.a(string.c.obj)
 .debug_line    0x0000000000005b59      0x20b zephyr/lib/libc/minimal/liblib__libc__minimal.a(stdout_console.c.obj)
 .debug_line    0x0000000000005d64      0xccc zephyr/subsys/bluetooth/host/libsubsys__bluetooth__host.a(hci_core.c.obj)
 .debug_line    0x0000000000006a30      0x1cc zephyr/subsys/bluetooth/controller/libsubsys__bluetooth__controller.a(mem.c.obj)
 .debug_line    0x0000000000006bfc       0xc2 zephyr/subsys/bluetooth/controller/libsubsys__bluetooth__controller.a(memq.c.obj)
 .debug_line    0x0000000000006cbe      0x189 zephyr/subsys/bluetooth/controller/libsubsys__bluetooth__controller.a(mayfly.c.obj)
 .debug_line    0x0000000000006e47       0xb0 zephyr/subsys/bluetooth/controller/libsubsys__bluetooth__controller.a(util.c.obj)
 .debug_line    0x0000000000006ef7      0x7e0 zephyr/subsys/bluetooth/controller/libsubsys__bluetooth__controller.a(ticker.c.obj)
 .debug_line    0x00000000000076d7      0x162 zephyr/subsys/bluetooth/controller/libsubsys__bluetooth__controller.a(ll_addr.c.obj)
 .debug_line    0x0000000000007839       0xbd zephyr/subsys/bluetooth/controller/libsubsys__bluetooth__controller.a(ll_tx_pwr.c.obj)
 .debug_line    0x00000000000078f6     0x1f45 zephyr/subsys/bluetooth/controller/libsubsys__bluetooth__controller.a(ctrl.c.obj)
 .debug_line    0x000000000000983b      0x51e zephyr/subsys/bluetooth/controller/libsubsys__bluetooth__controller.a(ll.c.obj)
 .debug_line    0x0000000000009d59      0x503 zephyr/subsys/bluetooth/controller/libsubsys__bluetooth__controller.a(hci_driver.c.obj)
 .debug_line    0x000000000000a25c      0x813 zephyr/subsys/bluetooth/controller/libsubsys__bluetooth__controller.a(hci.c.obj)
 .debug_line    0x000000000000aa6f      0x389 zephyr/subsys/bluetooth/controller/libsubsys__bluetooth__controller.a(crypto.c.obj)
 .debug_line    0x000000000000adf8      0x3d2 zephyr/subsys/bluetooth/controller/libsubsys__bluetooth__controller.a(ll_adv.c.obj)
 .debug_line    0x000000000000b1ca      0x36c zephyr/subsys/bluetooth/controller/libsubsys__bluetooth__controller.a(ll_filter.c.obj)
 .debug_line    0x000000000000b536      0x3ab zephyr/subsys/bluetooth/controller/libsubsys__bluetooth__controller.a(cntr.c.obj)
 .debug_line    0x000000000000b8e1      0x55a zephyr/subsys/bluetooth/controller/libsubsys__bluetooth__controller.a(ecb.c.obj)
 .debug_line    0x000000000000be3b      0xc7e zephyr/subsys/bluetooth/controller/libsubsys__bluetooth__controller.a(radio.c.obj)
 .debug_line    0x000000000000cab9      0x387 zephyr/subsys/bluetooth/controller/libsubsys__bluetooth__controller.a(mayfly.c.obj)
 .debug_line    0x000000000000ce40      0x312 zephyr/subsys/bluetooth/controller/libsubsys__bluetooth__controller.a(ticker.c.obj)
 .debug_line    0x000000000000d152      0x954 zephyr/subsys/net/libsubsys__net.a(buf.c.obj)
 .debug_line    0x000000000000daa6      0x554 zephyr/drivers/gpio/libdrivers__gpio.a(gpio_nrf5.c.obj)
 .debug_line    0x000000000000dffa      0x397 zephyr/drivers/sensor/dht/libdrivers__sensor__dht.a(dht.c.obj)
 .debug_line    0x000000000000e391      0x4f7 zephyr/drivers/entropy/libdrivers__entropy.a(entropy_nrf5.c.obj)
 .debug_line    0x000000000000e888      0x263 zephyr/kernel/libkernel.a(device.c.obj)
 .debug_line    0x000000000000eaeb      0x315 zephyr/kernel/libkernel.a(errno.c.obj)
 .debug_line    0x000000000000ee00      0x425 zephyr/kernel/libkernel.a(idle.c.obj)
 .debug_line    0x000000000000f225      0x5a1 zephyr/kernel/libkernel.a(init.c.obj)
 .debug_line    0x000000000000f7c6      0x4e6 zephyr/kernel/libkernel.a(mempool.c.obj)
 .debug_line    0x000000000000fcac      0x666 zephyr/kernel/libkernel.a(queue.c.obj)
 .debug_line    0x0000000000010312      0xb9f zephyr/kernel/libkernel.a(sched.c.obj)
 .debug_line    0x0000000000010eb1      0x47a zephyr/kernel/libkernel.a(sem.c.obj)
 .debug_line    0x000000000001132b      0x5f5 zephyr/kernel/libkernel.a(sys_clock.c.obj)
 .debug_line    0x0000000000011920      0x1db zephyr/kernel/libkernel.a(system_work_q.c.obj)
 .debug_line    0x0000000000011afb      0x7f3 zephyr/kernel/libkernel.a(thread.c.obj)
 .debug_line    0x00000000000122ee      0x601 zephyr/kernel/libkernel.a(work_q.c.obj)
 .debug_line    0x00000000000128ef      0x634 zephyr/kernel/libkernel.a(poll.c.obj)
 .debug_line    0x0000000000012f23      0x3ac zephyr/CMakeFiles/offsets.dir/arch/arm/core/offsets/offsets.c.obj

.debug_str      0x0000000000000000     0xd359
 .debug_str     0x0000000000000000      0x1e4 zephyr/CMakeFiles/kernel_elf.dir/isr_tables.c.obj
                                        0x1fd (size before relaxing)
 .debug_str     0x00000000000001e4      0x85c libapp.a(main.c.obj)
                                        0xb90 (size before relaxing)
 .debug_str     0x0000000000000a40       0x56 zephyr/libzephyr.a(isr_tables.c.obj)
                                        0x246 (size before relaxing)
 .debug_str     0x0000000000000a96      0x765 zephyr/libzephyr.a(soc.c.obj)
                                        0xd3c (size before relaxing)
 .debug_str     0x00000000000011fb       0x74 zephyr/libzephyr.a(mpu_regions.c.obj)
                                        0x288 (size before relaxing)
 .debug_str     0x000000000000126f       0x7c zephyr/libzephyr.a(thread_entry.c.obj)
                                        0x5a9 (size before relaxing)
 .debug_str     0x00000000000012eb      0x248 zephyr/libzephyr.a(mempool.c.obj)
                                        0x7b1 (size before relaxing)
 .debug_str     0x0000000000001533      0x33e zephyr/libzephyr.a(printk.c.obj)
                                        0x8c7 (size before relaxing)
 .debug_str     0x0000000000001871       0x2f zephyr/libzephyr.a(configs.c.obj)
                                        0x178 (size before relaxing)
 .debug_str     0x00000000000018a0      0x35c zephyr/libzephyr.a(system_nrf52.c.obj)
                                        0x774 (size before relaxing)
 .debug_str     0x0000000000001bfc      0x463 zephyr/libzephyr.a(SEGGER_RTT.c.obj)
                                        0x5df (size before relaxing)
 .debug_str     0x000000000000205f      0x11d zephyr/libzephyr.a(rand32_entropy_device.c.obj)
                                        0x722 (size before relaxing)
 .debug_str     0x000000000000217c       0xe1 zephyr/libzephyr.a(rtt_console.c.obj)
                                        0x7bd (size before relaxing)
 .debug_str     0x000000000000225d      0x6ce zephyr/libzephyr.a(nrf5_power_clock.c.obj)
                                        0xf7c (size before relaxing)
 .debug_str     0x000000000000292b       0xa4 zephyr/libzephyr.a(sys_clock_init.c.obj)
                                        0x659 (size before relaxing)
 .debug_str     0x00000000000029cf      0x2a5 zephyr/libzephyr.a(nrf_rtc_timer.c.obj)
                                        0xcf3 (size before relaxing)
 .debug_str     0x0000000000002c74       0x40 zephyr/arch/arm/core/libarch__arm__core.a(exc_exit.S.obj)
                                         0x65 (size before relaxing)
 .debug_str     0x0000000000002cb4       0x5a zephyr/arch/arm/core/libarch__arm__core.a(irq_init.c.obj)
                                        0x8ef (size before relaxing)
 .debug_str     0x0000000000002d0e       0xa1 zephyr/arch/arm/core/libarch__arm__core.a(swap.c.obj)
                                        0x68f (size before relaxing)
 .debug_str     0x0000000000002daf       0x35 zephyr/arch/arm/core/libarch__arm__core.a(swap_helper.S.obj)
                                         0x68 (size before relaxing)
 .debug_str     0x0000000000002de4      0x115 zephyr/arch/arm/core/libarch__arm__core.a(fault.c.obj)
                                        0x75d (size before relaxing)
 .debug_str     0x0000000000002ef9      0x120 zephyr/arch/arm/core/libarch__arm__core.a(irq_manage.c.obj)
                                        0xac7 (size before relaxing)
 .debug_str     0x0000000000003019       0xcf zephyr/arch/arm/core/libarch__arm__core.a(thread.c.obj)
                                        0x75d (size before relaxing)
 .debug_str     0x00000000000030e8       0x32 zephyr/arch/arm/core/libarch__arm__core.a(cpu_idle.S.obj)
                                         0x65 (size before relaxing)
 .debug_str     0x000000000000311a       0x31 zephyr/arch/arm/core/libarch__arm__core.a(fault_s.S.obj)
                                         0x64 (size before relaxing)
 .debug_str     0x000000000000314b       0x9c zephyr/arch/arm/core/libarch__arm__core.a(fatal.c.obj)
                                        0x6db (size before relaxing)
 .debug_str     0x00000000000031e7       0x6d zephyr/arch/arm/core/libarch__arm__core.a(sys_fatal_error_handler.c.obj)
                                        0x6b7 (size before relaxing)
 .debug_str     0x0000000000003254       0x72 zephyr/arch/arm/core/libarch__arm__core.a(thread_abort.c.obj)
                                        0x766 (size before relaxing)
 .debug_str     0x00000000000032c6       0x35 zephyr/arch/arm/core/libarch__arm__core.a(isr_wrapper.S.obj)
                                         0x68 (size before relaxing)
 .debug_str     0x00000000000032fb       0x38 zephyr/arch/arm/core/cortex_m/libarch__arm__core__cortex_m.a(reset.S.obj)
                                         0x6b (size before relaxing)
 .debug_str     0x0000000000003333       0x3f zephyr/arch/arm/core/cortex_m/libarch__arm__core__cortex_m.a(nmi_on_reset.S.obj)
                                         0x72 (size before relaxing)
 .debug_str     0x0000000000003372      0x1f9 zephyr/arch/arm/core/cortex_m/libarch__arm__core__cortex_m.a(prep_c.c.obj)
                                        0x7b2 (size before relaxing)
 .debug_str     0x000000000000356b       0x54 zephyr/arch/arm/core/cortex_m/libarch__arm__core__cortex_m.a(nmi.c.obj)
                                        0x55e (size before relaxing)
 .debug_str     0x00000000000035bf      0x129 zephyr/arch/arm/core/cortex_m/mpu/libarch__arm__core__cortex_m__mpu.a(arm_mpu.c.obj)
                                        0x980 (size before relaxing)
 .debug_str     0x00000000000036e8       0xc0 zephyr/lib/libc/minimal/liblib__libc__minimal.a(string.c.obj)
                                        0x257 (size before relaxing)
 .debug_str     0x00000000000037a8       0xad zephyr/lib/libc/minimal/liblib__libc__minimal.a(stdout_console.c.obj)
                                        0x2cd (size before relaxing)
 .debug_str     0x0000000000003855     0x13a7 zephyr/subsys/bluetooth/host/libsubsys__bluetooth__host.a(hci_core.c.obj)
                                       0x1d15 (size before relaxing)
 .debug_str     0x0000000000004bfc       0xd5 zephyr/subsys/bluetooth/controller/libsubsys__bluetooth__controller.a(mem.c.obj)
                                        0x2f0 (size before relaxing)
 .debug_str     0x0000000000004cd1       0x86 zephyr/subsys/bluetooth/controller/libsubsys__bluetooth__controller.a(memq.c.obj)
                                        0x24c (size before relaxing)
 .debug_str     0x0000000000004d57      0x10a zephyr/subsys/bluetooth/controller/libsubsys__bluetooth__controller.a(mayfly.c.obj)
                                        0x34b (size before relaxing)
 .debug_str     0x0000000000004e61       0x6f zephyr/subsys/bluetooth/controller/libsubsys__bluetooth__controller.a(util.c.obj)
                                        0x22d (size before relaxing)
 .debug_str     0x0000000000004ed0      0x7b7 zephyr/subsys/bluetooth/controller/libsubsys__bluetooth__controller.a(ticker.c.obj)
                                        0xf71 (size before relaxing)
 .debug_str     0x0000000000005687       0x94 zephyr/subsys/bluetooth/controller/libsubsys__bluetooth__controller.a(ll_addr.c.obj)
                                        0x269 (size before relaxing)
 .debug_str     0x000000000000571b       0x72 zephyr/subsys/bluetooth/controller/libsubsys__bluetooth__controller.a(ll_tx_pwr.c.obj)
                                        0x246 (size before relaxing)
 .debug_str     0x000000000000578d     0x2a94 zephyr/subsys/bluetooth/controller/libsubsys__bluetooth__controller.a(ctrl.c.obj)
                                       0x38f4 (size before relaxing)
 .debug_str     0x0000000000008221      0x1b7 zephyr/subsys/bluetooth/controller/libsubsys__bluetooth__controller.a(ll.c.obj)
                                        0xada (size before relaxing)
 .debug_str     0x00000000000083d8      0x176 zephyr/subsys/bluetooth/controller/libsubsys__bluetooth__controller.a(hci_driver.c.obj)
                                        0xcfd (size before relaxing)
 .debug_str     0x000000000000854e      0x642 zephyr/subsys/bluetooth/controller/libsubsys__bluetooth__controller.a(hci.c.obj)
                                       0x247f (size before relaxing)
 .debug_str     0x0000000000008b90       0x70 zephyr/subsys/bluetooth/controller/libsubsys__bluetooth__controller.a(crypto.c.obj)
                                        0x6a5 (size before relaxing)
 .debug_str     0x0000000000008c00       0xb8 zephyr/subsys/bluetooth/controller/libsubsys__bluetooth__controller.a(ll_adv.c.obj)
                                        0xb0d (size before relaxing)
 .debug_str     0x0000000000008cb8       0x97 zephyr/subsys/bluetooth/controller/libsubsys__bluetooth__controller.a(ll_filter.c.obj)
                                        0x85e (size before relaxing)
 .debug_str     0x0000000000008d4f       0x5c zephyr/subsys/bluetooth/controller/libsubsys__bluetooth__controller.a(cntr.c.obj)
                                        0x93e (size before relaxing)
 .debug_str     0x0000000000008dab      0x1e0 zephyr/subsys/bluetooth/controller/libsubsys__bluetooth__controller.a(ecb.c.obj)
                                        0xbd0 (size before relaxing)
 .debug_str     0x0000000000008f8b      0xea7 zephyr/subsys/bluetooth/controller/libsubsys__bluetooth__controller.a(radio.c.obj)
                                       0x1e84 (size before relaxing)
 .debug_str     0x0000000000009e32       0x47 zephyr/subsys/bluetooth/controller/libsubsys__bluetooth__controller.a(mayfly.c.obj)
                                        0x9f4 (size before relaxing)
 .debug_str     0x0000000000009e79       0xb4 zephyr/subsys/bluetooth/controller/libsubsys__bluetooth__controller.a(ticker.c.obj)
                                        0x7ff (size before relaxing)
 .debug_str     0x0000000000009f2d      0x4ce zephyr/subsys/net/libsubsys__net.a(buf.c.obj)
                                        0xdb7 (size before relaxing)
 .debug_str     0x000000000000a3fb      0x4ae zephyr/drivers/gpio/libdrivers__gpio.a(gpio_nrf5.c.obj)
                                        0xc44 (size before relaxing)
 .debug_str     0x000000000000a8a9      0x178 zephyr/drivers/sensor/dht/libdrivers__sensor__dht.a(dht.c.obj)
                                        0xe24 (size before relaxing)
 .debug_str     0x000000000000aa21      0x1f9 zephyr/drivers/entropy/libdrivers__entropy.a(entropy_nrf5.c.obj)
                                        0xcb9 (size before relaxing)
 .debug_str     0x000000000000ac1a      0x121 zephyr/kernel/libkernel.a(device.c.obj)
                                        0x6fb (size before relaxing)
 .debug_str     0x000000000000ad3b       0x36 zephyr/kernel/libkernel.a(errno.c.obj)
                                        0x714 (size before relaxing)
 .debug_str     0x000000000000ad71       0xd1 zephyr/kernel/libkernel.a(idle.c.obj)
                                        0x795 (size before relaxing)
 .debug_str     0x000000000000ae42      0x3f4 zephyr/kernel/libkernel.a(init.c.obj)
                                       0x11ea (size before relaxing)
 .debug_str     0x000000000000b236      0x188 zephyr/kernel/libkernel.a(mempool.c.obj)
                                        0x98f (size before relaxing)
 .debug_str     0x000000000000b3be      0x298 zephyr/kernel/libkernel.a(queue.c.obj)
                                        0xc08 (size before relaxing)
 .debug_str     0x000000000000b656      0x64c zephyr/kernel/libkernel.a(sched.c.obj)
                                        0xf8a (size before relaxing)
 .debug_str     0x000000000000bca2       0xa3 zephyr/kernel/libkernel.a(sem.c.obj)
                                        0x941 (size before relaxing)
 .debug_str     0x000000000000bd45      0x105 zephyr/kernel/libkernel.a(sys_clock.c.obj)
                                        0x9c0 (size before relaxing)
 .debug_str     0x000000000000be4a       0xac zephyr/kernel/libkernel.a(system_work_q.c.obj)
                                        0x67e (size before relaxing)
 .debug_str     0x000000000000bef6      0x2d0 zephyr/kernel/libkernel.a(thread.c.obj)
                                        0xe14 (size before relaxing)
 .debug_str     0x000000000000c1c6      0x13a zephyr/kernel/libkernel.a(work_q.c.obj)
                                        0xc6b (size before relaxing)
 .debug_str     0x000000000000c300      0x16d zephyr/kernel/libkernel.a(poll.c.obj)
                                        0xbd6 (size before relaxing)
 .debug_str     0x000000000000c46d      0xeec zephyr/CMakeFiles/offsets.dir/arch/arm/core/offsets/offsets.c.obj
                                       0x1523 (size before relaxing)

.comment        0x0000000000000000       0x7f
 .comment       0x0000000000000000       0x7f zephyr/CMakeFiles/kernel_elf.dir/isr_tables.c.obj
                                         0x80 (size before relaxing)
 .comment       0x000000000000007f       0x80 libapp.a(main.c.obj)
 .comment       0x000000000000007f       0x80 zephyr/libzephyr.a(isr_tables.c.obj)
 .comment       0x000000000000007f       0x80 zephyr/libzephyr.a(soc.c.obj)
 .comment       0x000000000000007f       0x80 zephyr/libzephyr.a(mpu_regions.c.obj)
 .comment       0x000000000000007f       0x80 zephyr/libzephyr.a(thread_entry.c.obj)
 .comment       0x000000000000007f       0x80 zephyr/libzephyr.a(mempool.c.obj)
 .comment       0x000000000000007f       0x80 zephyr/libzephyr.a(printk.c.obj)
 .comment       0x000000000000007f       0x80 zephyr/libzephyr.a(configs.c.obj)
 .comment       0x000000000000007f       0x80 zephyr/libzephyr.a(system_nrf52.c.obj)
 .comment       0x000000000000007f       0x80 zephyr/libzephyr.a(SEGGER_RTT.c.obj)
 .comment       0x000000000000007f       0x80 zephyr/libzephyr.a(rand32_entropy_device.c.obj)
 .comment       0x000000000000007f       0x80 zephyr/libzephyr.a(rtt_console.c.obj)
 .comment       0x000000000000007f       0x80 zephyr/libzephyr.a(nrf5_power_clock.c.obj)
 .comment       0x000000000000007f       0x80 zephyr/libzephyr.a(sys_clock_init.c.obj)
 .comment       0x000000000000007f       0x80 zephyr/libzephyr.a(nrf_rtc_timer.c.obj)
 .comment       0x000000000000007f       0x80 zephyr/arch/arm/core/libarch__arm__core.a(irq_init.c.obj)
 .comment       0x000000000000007f       0x80 zephyr/arch/arm/core/libarch__arm__core.a(swap.c.obj)
 .comment       0x000000000000007f       0x80 zephyr/arch/arm/core/libarch__arm__core.a(fault.c.obj)
 .comment       0x000000000000007f       0x80 zephyr/arch/arm/core/libarch__arm__core.a(irq_manage.c.obj)
 .comment       0x000000000000007f       0x80 zephyr/arch/arm/core/libarch__arm__core.a(thread.c.obj)
 .comment       0x000000000000007f       0x80 zephyr/arch/arm/core/libarch__arm__core.a(fatal.c.obj)
 .comment       0x000000000000007f       0x80 zephyr/arch/arm/core/libarch__arm__core.a(sys_fatal_error_handler.c.obj)
 .comment       0x000000000000007f       0x80 zephyr/arch/arm/core/libarch__arm__core.a(thread_abort.c.obj)
 .comment       0x000000000000007f       0x80 zephyr/arch/arm/core/cortex_m/libarch__arm__core__cortex_m.a(prep_c.c.obj)
 .comment       0x000000000000007f       0x80 zephyr/arch/arm/core/cortex_m/libarch__arm__core__cortex_m.a(nmi.c.obj)
 .comment       0x000000000000007f       0x80 zephyr/arch/arm/core/cortex_m/mpu/libarch__arm__core__cortex_m__mpu.a(arm_mpu.c.obj)
 .comment       0x000000000000007f       0x80 zephyr/lib/libc/minimal/liblib__libc__minimal.a(string.c.obj)
 .comment       0x000000000000007f       0x80 zephyr/lib/libc/minimal/liblib__libc__minimal.a(stdout_console.c.obj)
 .comment       0x000000000000007f       0x80 zephyr/subsys/bluetooth/host/libsubsys__bluetooth__host.a(hci_core.c.obj)
 .comment       0x000000000000007f       0x80 zephyr/subsys/bluetooth/controller/libsubsys__bluetooth__controller.a(mem.c.obj)
 .comment       0x000000000000007f       0x80 zephyr/subsys/bluetooth/controller/libsubsys__bluetooth__controller.a(memq.c.obj)
 .comment       0x000000000000007f       0x80 zephyr/subsys/bluetooth/controller/libsubsys__bluetooth__controller.a(mayfly.c.obj)
 .comment       0x000000000000007f       0x80 zephyr/subsys/bluetooth/controller/libsubsys__bluetooth__controller.a(util.c.obj)
 .comment       0x000000000000007f       0x80 zephyr/subsys/bluetooth/controller/libsubsys__bluetooth__controller.a(ticker.c.obj)
 .comment       0x000000000000007f       0x80 zephyr/subsys/bluetooth/controller/libsubsys__bluetooth__controller.a(ll_addr.c.obj)
 .comment       0x000000000000007f       0x80 zephyr/subsys/bluetooth/controller/libsubsys__bluetooth__controller.a(ll_tx_pwr.c.obj)
 .comment       0x000000000000007f       0x80 zephyr/subsys/bluetooth/controller/libsubsys__bluetooth__controller.a(ctrl.c.obj)
 .comment       0x000000000000007f       0x80 zephyr/subsys/bluetooth/controller/libsubsys__bluetooth__controller.a(ll.c.obj)
 .comment       0x000000000000007f       0x80 zephyr/subsys/bluetooth/controller/libsubsys__bluetooth__controller.a(hci_driver.c.obj)
 .comment       0x000000000000007f       0x80 zephyr/subsys/bluetooth/controller/libsubsys__bluetooth__controller.a(hci.c.obj)
 .comment       0x000000000000007f       0x80 zephyr/subsys/bluetooth/controller/libsubsys__bluetooth__controller.a(crypto.c.obj)
 .comment       0x000000000000007f       0x80 zephyr/subsys/bluetooth/controller/libsubsys__bluetooth__controller.a(ll_adv.c.obj)
 .comment       0x000000000000007f       0x80 zephyr/subsys/bluetooth/controller/libsubsys__bluetooth__controller.a(ll_filter.c.obj)
 .comment       0x000000000000007f       0x80 zephyr/subsys/bluetooth/controller/libsubsys__bluetooth__controller.a(cntr.c.obj)
 .comment       0x000000000000007f       0x80 zephyr/subsys/bluetooth/controller/libsubsys__bluetooth__controller.a(ecb.c.obj)
 .comment       0x000000000000007f       0x80 zephyr/subsys/bluetooth/controller/libsubsys__bluetooth__controller.a(radio.c.obj)
 .comment       0x000000000000007f       0x80 zephyr/subsys/bluetooth/controller/libsubsys__bluetooth__controller.a(mayfly.c.obj)
 .comment       0x000000000000007f       0x80 zephyr/subsys/bluetooth/controller/libsubsys__bluetooth__controller.a(ticker.c.obj)
 .comment       0x000000000000007f       0x80 zephyr/subsys/net/libsubsys__net.a(buf.c.obj)
 .comment       0x000000000000007f       0x80 zephyr/drivers/gpio/libdrivers__gpio.a(gpio_nrf5.c.obj)
 .comment       0x000000000000007f       0x80 zephyr/drivers/sensor/dht/libdrivers__sensor__dht.a(dht.c.obj)
 .comment       0x000000000000007f       0x80 zephyr/drivers/entropy/libdrivers__entropy.a(entropy_nrf5.c.obj)
 .comment       0x000000000000007f       0x80 zephyr/kernel/libkernel.a(device.c.obj)
 .comment       0x000000000000007f       0x80 zephyr/kernel/libkernel.a(errno.c.obj)
 .comment       0x000000000000007f       0x80 zephyr/kernel/libkernel.a(idle.c.obj)
 .comment       0x000000000000007f       0x80 zephyr/kernel/libkernel.a(init.c.obj)
 .comment       0x000000000000007f       0x80 zephyr/kernel/libkernel.a(mempool.c.obj)
 .comment       0x000000000000007f       0x80 zephyr/kernel/libkernel.a(queue.c.obj)
 .comment       0x000000000000007f       0x80 zephyr/kernel/libkernel.a(sched.c.obj)
 .comment       0x000000000000007f       0x80 zephyr/kernel/libkernel.a(sem.c.obj)
 .comment       0x000000000000007f       0x80 zephyr/kernel/libkernel.a(sys_clock.c.obj)
 .comment       0x000000000000007f       0x80 zephyr/kernel/libkernel.a(system_work_q.c.obj)
 .comment       0x000000000000007f       0x80 zephyr/kernel/libkernel.a(thread.c.obj)
 .comment       0x000000000000007f       0x80 zephyr/kernel/libkernel.a(work_q.c.obj)
 .comment       0x000000000000007f       0x80 zephyr/kernel/libkernel.a(poll.c.obj)
 .comment       0x000000000000007f       0x80 zephyr/CMakeFiles/offsets.dir/arch/arm/core/offsets/offsets.c.obj

.ARM.attributes
                0x0000000000000000       0x31
 .ARM.attributes
                0x0000000000000000       0x33 zephyr/CMakeFiles/kernel_elf.dir/isr_tables.c.obj
 .ARM.attributes
                0x0000000000000033       0x33 libapp.a(main.c.obj)
 .ARM.attributes
                0x0000000000000066       0x33 zephyr/libzephyr.a(isr_tables.c.obj)
 .ARM.attributes
                0x0000000000000099       0x33 zephyr/libzephyr.a(soc.c.obj)
 .ARM.attributes
                0x00000000000000cc       0x33 zephyr/libzephyr.a(mpu_regions.c.obj)
 .ARM.attributes
                0x00000000000000ff       0x33 zephyr/libzephyr.a(thread_entry.c.obj)
 .ARM.attributes
                0x0000000000000132       0x33 zephyr/libzephyr.a(mempool.c.obj)
 .ARM.attributes
                0x0000000000000165       0x33 zephyr/libzephyr.a(printk.c.obj)
 .ARM.attributes
                0x0000000000000198       0x33 zephyr/libzephyr.a(configs.c.obj)
 .ARM.attributes
                0x00000000000001cb       0x33 zephyr/libzephyr.a(system_nrf52.c.obj)
 .ARM.attributes
                0x00000000000001fe       0x33 zephyr/libzephyr.a(SEGGER_RTT.c.obj)
 .ARM.attributes
                0x0000000000000231       0x33 zephyr/libzephyr.a(rand32_entropy_device.c.obj)
 .ARM.attributes
                0x0000000000000264       0x33 zephyr/libzephyr.a(rtt_console.c.obj)
 .ARM.attributes
                0x0000000000000297       0x33 zephyr/libzephyr.a(nrf5_power_clock.c.obj)
 .ARM.attributes
                0x00000000000002ca       0x33 zephyr/libzephyr.a(sys_clock_init.c.obj)
 .ARM.attributes
                0x00000000000002fd       0x33 zephyr/libzephyr.a(nrf_rtc_timer.c.obj)
 .ARM.attributes
                0x0000000000000330       0x21 zephyr/arch/arm/core/libarch__arm__core.a(exc_exit.S.obj)
 .ARM.attributes
                0x0000000000000351       0x33 zephyr/arch/arm/core/libarch__arm__core.a(irq_init.c.obj)
 .ARM.attributes
                0x0000000000000384       0x33 zephyr/arch/arm/core/libarch__arm__core.a(swap.c.obj)
 .ARM.attributes
                0x00000000000003b7       0x21 zephyr/arch/arm/core/libarch__arm__core.a(swap_helper.S.obj)
 .ARM.attributes
                0x00000000000003d8       0x33 zephyr/arch/arm/core/libarch__arm__core.a(fault.c.obj)
 .ARM.attributes
                0x000000000000040b       0x33 zephyr/arch/arm/core/libarch__arm__core.a(irq_manage.c.obj)
 .ARM.attributes
                0x000000000000043e       0x33 zephyr/arch/arm/core/libarch__arm__core.a(thread.c.obj)
 .ARM.attributes
                0x0000000000000471       0x21 zephyr/arch/arm/core/libarch__arm__core.a(cpu_idle.S.obj)
 .ARM.attributes
                0x0000000000000492       0x21 zephyr/arch/arm/core/libarch__arm__core.a(fault_s.S.obj)
 .ARM.attributes
                0x00000000000004b3       0x33 zephyr/arch/arm/core/libarch__arm__core.a(fatal.c.obj)
 .ARM.attributes
                0x00000000000004e6       0x33 zephyr/arch/arm/core/libarch__arm__core.a(sys_fatal_error_handler.c.obj)
 .ARM.attributes
                0x0000000000000519       0x33 zephyr/arch/arm/core/libarch__arm__core.a(thread_abort.c.obj)
 .ARM.attributes
                0x000000000000054c       0x21 zephyr/arch/arm/core/libarch__arm__core.a(isr_wrapper.S.obj)
 .ARM.attributes
                0x000000000000056d       0x21 zephyr/arch/arm/core/cortex_m/libarch__arm__core__cortex_m.a(vector_table.S.obj)
 .ARM.attributes
                0x000000000000058e       0x21 zephyr/arch/arm/core/cortex_m/libarch__arm__core__cortex_m.a(reset.S.obj)
 .ARM.attributes
                0x00000000000005af       0x21 zephyr/arch/arm/core/cortex_m/libarch__arm__core__cortex_m.a(nmi_on_reset.S.obj)
 .ARM.attributes
                0x00000000000005d0       0x33 zephyr/arch/arm/core/cortex_m/libarch__arm__core__cortex_m.a(prep_c.c.obj)
 .ARM.attributes
                0x0000000000000603       0x33 zephyr/arch/arm/core/cortex_m/libarch__arm__core__cortex_m.a(nmi.c.obj)
 .ARM.attributes
                0x0000000000000636       0x33 zephyr/arch/arm/core/cortex_m/mpu/libarch__arm__core__cortex_m__mpu.a(arm_mpu.c.obj)
 .ARM.attributes
                0x0000000000000669       0x33 zephyr/lib/libc/minimal/liblib__libc__minimal.a(string.c.obj)
 .ARM.attributes
                0x000000000000069c       0x33 zephyr/lib/libc/minimal/liblib__libc__minimal.a(stdout_console.c.obj)
 .ARM.attributes
                0x00000000000006cf       0x33 zephyr/subsys/bluetooth/host/libsubsys__bluetooth__host.a(hci_core.c.obj)
 .ARM.attributes
                0x0000000000000702       0x33 zephyr/subsys/bluetooth/controller/libsubsys__bluetooth__controller.a(mem.c.obj)
 .ARM.attributes
                0x0000000000000735       0x33 zephyr/subsys/bluetooth/controller/libsubsys__bluetooth__controller.a(memq.c.obj)
 .ARM.attributes
                0x0000000000000768       0x33 zephyr/subsys/bluetooth/controller/libsubsys__bluetooth__controller.a(mayfly.c.obj)
 .ARM.attributes
                0x000000000000079b       0x33 zephyr/subsys/bluetooth/controller/libsubsys__bluetooth__controller.a(util.c.obj)
 .ARM.attributes
                0x00000000000007ce       0x33 zephyr/subsys/bluetooth/controller/libsubsys__bluetooth__controller.a(ticker.c.obj)
 .ARM.attributes
                0x0000000000000801       0x33 zephyr/subsys/bluetooth/controller/libsubsys__bluetooth__controller.a(ll_addr.c.obj)
 .ARM.attributes
                0x0000000000000834       0x33 zephyr/subsys/bluetooth/controller/libsubsys__bluetooth__controller.a(ll_tx_pwr.c.obj)
 .ARM.attributes
                0x0000000000000867       0x33 zephyr/subsys/bluetooth/controller/libsubsys__bluetooth__controller.a(ctrl.c.obj)
 .ARM.attributes
                0x000000000000089a       0x33 zephyr/subsys/bluetooth/controller/libsubsys__bluetooth__controller.a(ll.c.obj)
 .ARM.attributes
                0x00000000000008cd       0x33 zephyr/subsys/bluetooth/controller/libsubsys__bluetooth__controller.a(hci_driver.c.obj)
 .ARM.attributes
                0x0000000000000900       0x33 zephyr/subsys/bluetooth/controller/libsubsys__bluetooth__controller.a(hci.c.obj)
 .ARM.attributes
                0x0000000000000933       0x33 zephyr/subsys/bluetooth/controller/libsubsys__bluetooth__controller.a(crypto.c.obj)
 .ARM.attributes
                0x0000000000000966       0x33 zephyr/subsys/bluetooth/controller/libsubsys__bluetooth__controller.a(ll_adv.c.obj)
 .ARM.attributes
                0x0000000000000999       0x33 zephyr/subsys/bluetooth/controller/libsubsys__bluetooth__controller.a(ll_filter.c.obj)
 .ARM.attributes
                0x00000000000009cc       0x33 zephyr/subsys/bluetooth/controller/libsubsys__bluetooth__controller.a(cntr.c.obj)
 .ARM.attributes
                0x00000000000009ff       0x33 zephyr/subsys/bluetooth/controller/libsubsys__bluetooth__controller.a(ecb.c.obj)
 .ARM.attributes
                0x0000000000000a32       0x33 zephyr/subsys/bluetooth/controller/libsubsys__bluetooth__controller.a(radio.c.obj)
 .ARM.attributes
                0x0000000000000a65       0x33 zephyr/subsys/bluetooth/controller/libsubsys__bluetooth__controller.a(mayfly.c.obj)
 .ARM.attributes
                0x0000000000000a98       0x33 zephyr/subsys/bluetooth/controller/libsubsys__bluetooth__controller.a(ticker.c.obj)
 .ARM.attributes
                0x0000000000000acb       0x33 zephyr/subsys/net/libsubsys__net.a(buf.c.obj)
 .ARM.attributes
                0x0000000000000afe       0x33 zephyr/drivers/gpio/libdrivers__gpio.a(gpio_nrf5.c.obj)
 .ARM.attributes
                0x0000000000000b31       0x33 zephyr/drivers/sensor/dht/libdrivers__sensor__dht.a(dht.c.obj)
 .ARM.attributes
                0x0000000000000b64       0x33 zephyr/drivers/entropy/libdrivers__entropy.a(entropy_nrf5.c.obj)
 .ARM.attributes
                0x0000000000000b97       0x33 zephyr/kernel/libkernel.a(device.c.obj)
 .ARM.attributes
                0x0000000000000bca       0x33 zephyr/kernel/libkernel.a(errno.c.obj)
 .ARM.attributes
                0x0000000000000bfd       0x33 zephyr/kernel/libkernel.a(idle.c.obj)
 .ARM.attributes
                0x0000000000000c30       0x33 zephyr/kernel/libkernel.a(init.c.obj)
 .ARM.attributes
                0x0000000000000c63       0x33 zephyr/kernel/libkernel.a(mempool.c.obj)
 .ARM.attributes
                0x0000000000000c96       0x33 zephyr/kernel/libkernel.a(queue.c.obj)
 .ARM.attributes
                0x0000000000000cc9       0x33 zephyr/kernel/libkernel.a(sched.c.obj)
 .ARM.attributes
                0x0000000000000cfc       0x33 zephyr/kernel/libkernel.a(sem.c.obj)
 .ARM.attributes
                0x0000000000000d2f       0x33 zephyr/kernel/libkernel.a(sys_clock.c.obj)
 .ARM.attributes
                0x0000000000000d62       0x33 zephyr/kernel/libkernel.a(system_work_q.c.obj)
 .ARM.attributes
                0x0000000000000d95       0x33 zephyr/kernel/libkernel.a(thread.c.obj)
 .ARM.attributes
                0x0000000000000dc8       0x33 zephyr/kernel/libkernel.a(work_q.c.obj)
 .ARM.attributes
                0x0000000000000dfb       0x33 zephyr/kernel/libkernel.a(poll.c.obj)
 .ARM.attributes
                0x0000000000000e2e       0x33 zephyr/CMakeFiles/offsets.dir/arch/arm/core/offsets/offsets.c.obj
 .ARM.attributes
                0x0000000000000e61       0x1e /home/mark/cs7ns2/gcc-arm-none-eabi/bin/../lib/gcc/arm-none-eabi/7.3.1/thumb/v7e-m/libgcc.a(_aeabi_ldivmod.o)
 .ARM.attributes
                0x0000000000000e7f       0x1e /home/mark/cs7ns2/gcc-arm-none-eabi/bin/../lib/gcc/arm-none-eabi/7.3.1/thumb/v7e-m/libgcc.a(_aeabi_uldivmod.o)
 .ARM.attributes
                0x0000000000000e9d       0x2e /home/mark/cs7ns2/gcc-arm-none-eabi/bin/../lib/gcc/arm-none-eabi/7.3.1/thumb/v7e-m/libgcc.a(_popcountsi2.o)
 .ARM.attributes
                0x0000000000000ecb       0x2e /home/mark/cs7ns2/gcc-arm-none-eabi/bin/../lib/gcc/arm-none-eabi/7.3.1/thumb/v7e-m/libgcc.a(_udivmoddi4.o)
 .ARM.attributes
                0x0000000000000ef9       0x1e /home/mark/cs7ns2/gcc-arm-none-eabi/bin/../lib/gcc/arm-none-eabi/7.3.1/thumb/v7e-m/libgcc.a(_dvmd_tls.o)

.debug_loc      0x0000000000000000    0x1b17b
 .debug_loc     0x0000000000000000      0x141 libapp.a(main.c.obj)
 .debug_loc     0x0000000000000141       0x35 zephyr/libzephyr.a(soc.c.obj)
 .debug_loc     0x0000000000000176       0x97 zephyr/libzephyr.a(thread_entry.c.obj)
 .debug_loc     0x000000000000020d      0xbca zephyr/libzephyr.a(mempool.c.obj)
 .debug_loc     0x0000000000000dd7      0xac8 zephyr/libzephyr.a(printk.c.obj)
 .debug_loc     0x000000000000189f     0x14a7 zephyr/libzephyr.a(SEGGER_RTT.c.obj)
 .debug_loc     0x0000000000002d46       0xb1 zephyr/libzephyr.a(rand32_entropy_device.c.obj)
 .debug_loc     0x0000000000002df7       0xcd zephyr/libzephyr.a(rtt_console.c.obj)
 .debug_loc     0x0000000000002ec4      0x4e3 zephyr/libzephyr.a(nrf5_power_clock.c.obj)
 .debug_loc     0x00000000000033a7      0x2ec zephyr/libzephyr.a(nrf_rtc_timer.c.obj)
 .debug_loc     0x0000000000003693       0x5e zephyr/arch/arm/core/libarch__arm__core.a(irq_init.c.obj)
 .debug_loc     0x00000000000036f1       0x35 zephyr/arch/arm/core/libarch__arm__core.a(swap.c.obj)
 .debug_loc     0x0000000000003726      0x344 zephyr/arch/arm/core/libarch__arm__core.a(fault.c.obj)
 .debug_loc     0x0000000000003a6a      0x19c zephyr/arch/arm/core/libarch__arm__core.a(irq_manage.c.obj)
 .debug_loc     0x0000000000003c06      0x20f zephyr/arch/arm/core/libarch__arm__core.a(thread.c.obj)
 .debug_loc     0x0000000000003e15      0x144 zephyr/arch/arm/core/libarch__arm__core.a(fatal.c.obj)
 .debug_loc     0x0000000000003f59       0x42 zephyr/arch/arm/core/libarch__arm__core.a(sys_fatal_error_handler.c.obj)
 .debug_loc     0x0000000000003f9b       0x3f zephyr/arch/arm/core/libarch__arm__core.a(thread_abort.c.obj)
 .debug_loc     0x0000000000003fda       0xa6 zephyr/arch/arm/core/cortex_m/mpu/libarch__arm__core__cortex_m__mpu.a(arm_mpu.c.obj)
 .debug_loc     0x0000000000004080      0x91e zephyr/lib/libc/minimal/liblib__libc__minimal.a(string.c.obj)
 .debug_loc     0x000000000000499e      0x44d zephyr/lib/libc/minimal/liblib__libc__minimal.a(stdout_console.c.obj)
 .debug_loc     0x0000000000004deb     0x1d8a zephyr/subsys/bluetooth/host/libsubsys__bluetooth__host.a(hci_core.c.obj)
 .debug_loc     0x0000000000006b75      0x3b9 zephyr/subsys/bluetooth/controller/libsubsys__bluetooth__controller.a(mem.c.obj)
 .debug_loc     0x0000000000006f2e       0xed zephyr/subsys/bluetooth/controller/libsubsys__bluetooth__controller.a(memq.c.obj)
 .debug_loc     0x000000000000701b      0x411 zephyr/subsys/bluetooth/controller/libsubsys__bluetooth__controller.a(mayfly.c.obj)
 .debug_loc     0x000000000000742c       0x73 zephyr/subsys/bluetooth/controller/libsubsys__bluetooth__controller.a(util.c.obj)
 .debug_loc     0x000000000000749f     0x1f21 zephyr/subsys/bluetooth/controller/libsubsys__bluetooth__controller.a(ticker.c.obj)
 .debug_loc     0x00000000000093c0       0xdf zephyr/subsys/bluetooth/controller/libsubsys__bluetooth__controller.a(ll_addr.c.obj)
 .debug_loc     0x000000000000949f       0x21 zephyr/subsys/bluetooth/controller/libsubsys__bluetooth__controller.a(ll_tx_pwr.c.obj)
 .debug_loc     0x00000000000094c0     0x5ba3 zephyr/subsys/bluetooth/controller/libsubsys__bluetooth__controller.a(ctrl.c.obj)
 .debug_loc     0x000000000000f063      0x181 zephyr/subsys/bluetooth/controller/libsubsys__bluetooth__controller.a(ll.c.obj)
 .debug_loc     0x000000000000f1e4      0x45e zephyr/subsys/bluetooth/controller/libsubsys__bluetooth__controller.a(hci_driver.c.obj)
 .debug_loc     0x000000000000f642     0x266c zephyr/subsys/bluetooth/controller/libsubsys__bluetooth__controller.a(hci.c.obj)
 .debug_loc     0x0000000000011cae      0x10d zephyr/subsys/bluetooth/controller/libsubsys__bluetooth__controller.a(crypto.c.obj)
 .debug_loc     0x0000000000011dbb      0x630 zephyr/subsys/bluetooth/controller/libsubsys__bluetooth__controller.a(ll_adv.c.obj)
 .debug_loc     0x00000000000123eb      0x233 zephyr/subsys/bluetooth/controller/libsubsys__bluetooth__controller.a(ll_filter.c.obj)
 .debug_loc     0x000000000001261e      0x139 zephyr/subsys/bluetooth/controller/libsubsys__bluetooth__controller.a(cntr.c.obj)
 .debug_loc     0x0000000000012757      0x3b2 zephyr/subsys/bluetooth/controller/libsubsys__bluetooth__controller.a(ecb.c.obj)
 .debug_loc     0x0000000000012b09      0xec7 zephyr/subsys/bluetooth/controller/libsubsys__bluetooth__controller.a(radio.c.obj)
 .debug_loc     0x00000000000139d0      0x17b zephyr/subsys/bluetooth/controller/libsubsys__bluetooth__controller.a(mayfly.c.obj)
 .debug_loc     0x0000000000013b4b      0x16f zephyr/subsys/bluetooth/controller/libsubsys__bluetooth__controller.a(ticker.c.obj)
 .debug_loc     0x0000000000013cba     0x13c3 zephyr/subsys/net/libsubsys__net.a(buf.c.obj)
 .debug_loc     0x000000000001507d      0xa43 zephyr/drivers/gpio/libdrivers__gpio.a(gpio_nrf5.c.obj)
 .debug_loc     0x0000000000015ac0      0x537 zephyr/drivers/sensor/dht/libdrivers__sensor__dht.a(dht.c.obj)
 .debug_loc     0x0000000000015ff7      0x919 zephyr/drivers/entropy/libdrivers__entropy.a(entropy_nrf5.c.obj)
 .debug_loc     0x0000000000016910       0xf5 zephyr/kernel/libkernel.a(device.c.obj)
 .debug_loc     0x0000000000016a05       0x8f zephyr/kernel/libkernel.a(idle.c.obj)
 .debug_loc     0x0000000000016a94      0x331 zephyr/kernel/libkernel.a(init.c.obj)
 .debug_loc     0x0000000000016dc5      0x34d zephyr/kernel/libkernel.a(mempool.c.obj)
 .debug_loc     0x0000000000017112      0xad4 zephyr/kernel/libkernel.a(queue.c.obj)
 .debug_loc     0x0000000000017be6     0x165f zephyr/kernel/libkernel.a(sched.c.obj)
 .debug_loc     0x0000000000019245      0x235 zephyr/kernel/libkernel.a(sem.c.obj)
 .debug_loc     0x000000000001947a      0x451 zephyr/kernel/libkernel.a(sys_clock.c.obj)
 .debug_loc     0x00000000000198cb       0x21 zephyr/kernel/libkernel.a(system_work_q.c.obj)
 .debug_loc     0x00000000000198ec      0x9a7 zephyr/kernel/libkernel.a(thread.c.obj)
 .debug_loc     0x000000000001a293      0x7ec zephyr/kernel/libkernel.a(work_q.c.obj)
 .debug_loc     0x000000000001aa7f      0x6fc zephyr/kernel/libkernel.a(poll.c.obj)

.debug_ranges   0x0000000000000000     0x3d00
 .debug_ranges  0x0000000000000000       0x28 libapp.a(main.c.obj)
 .debug_ranges  0x0000000000000028       0x10 zephyr/libzephyr.a(soc.c.obj)
 .debug_ranges  0x0000000000000038       0x10 zephyr/libzephyr.a(thread_entry.c.obj)
 .debug_ranges  0x0000000000000048      0x210 zephyr/libzephyr.a(mempool.c.obj)
 .debug_ranges  0x0000000000000258       0xf0 zephyr/libzephyr.a(printk.c.obj)
 .debug_ranges  0x0000000000000348       0x10 zephyr/libzephyr.a(configs.c.obj)
 .debug_ranges  0x0000000000000358       0x28 zephyr/libzephyr.a(system_nrf52.c.obj)
 .debug_ranges  0x0000000000000380      0x138 zephyr/libzephyr.a(SEGGER_RTT.c.obj)
 .debug_ranges  0x00000000000004b8       0x10 zephyr/libzephyr.a(rand32_entropy_device.c.obj)
 .debug_ranges  0x00000000000004c8       0x18 zephyr/libzephyr.a(rtt_console.c.obj)
 .debug_ranges  0x00000000000004e0       0x78 zephyr/libzephyr.a(nrf5_power_clock.c.obj)
 .debug_ranges  0x0000000000000558       0xb8 zephyr/libzephyr.a(nrf_rtc_timer.c.obj)
 .debug_ranges  0x0000000000000610       0x30 zephyr/arch/arm/core/libarch__arm__core.a(irq_init.c.obj)
 .debug_ranges  0x0000000000000640       0x10 zephyr/arch/arm/core/libarch__arm__core.a(swap.c.obj)
 .debug_ranges  0x0000000000000650       0x20 zephyr/arch/arm/core/libarch__arm__core.a(swap_helper.S.obj)
 .debug_ranges  0x0000000000000670       0xb8 zephyr/arch/arm/core/libarch__arm__core.a(fault.c.obj)
 .debug_ranges  0x0000000000000728       0x50 zephyr/arch/arm/core/libarch__arm__core.a(irq_manage.c.obj)
 .debug_ranges  0x0000000000000778       0x38 zephyr/arch/arm/core/libarch__arm__core.a(thread.c.obj)
 .debug_ranges  0x00000000000007b0       0x38 zephyr/arch/arm/core/libarch__arm__core.a(cpu_idle.S.obj)
 .debug_ranges  0x00000000000007e8       0x20 zephyr/arch/arm/core/libarch__arm__core.a(fatal.c.obj)
 .debug_ranges  0x0000000000000808       0x28 zephyr/arch/arm/core/libarch__arm__core.a(sys_fatal_error_handler.c.obj)
 .debug_ranges  0x0000000000000830       0x10 zephyr/arch/arm/core/libarch__arm__core.a(thread_abort.c.obj)
 .debug_ranges  0x0000000000000840       0x10 zephyr/arch/arm/core/cortex_m/libarch__arm__core__cortex_m.a(prep_c.c.obj)
 .debug_ranges  0x0000000000000850       0x10 zephyr/arch/arm/core/cortex_m/libarch__arm__core__cortex_m.a(nmi.c.obj)
 .debug_ranges  0x0000000000000860       0x38 zephyr/arch/arm/core/cortex_m/mpu/libarch__arm__core__cortex_m__mpu.a(arm_mpu.c.obj)
 .debug_ranges  0x0000000000000898       0x78 zephyr/lib/libc/minimal/liblib__libc__minimal.a(string.c.obj)
 .debug_ranges  0x0000000000000910       0x78 zephyr/lib/libc/minimal/liblib__libc__minimal.a(stdout_console.c.obj)
 .debug_ranges  0x0000000000000988      0x4e8 zephyr/subsys/bluetooth/host/libsubsys__bluetooth__host.a(hci_core.c.obj)
 .debug_ranges  0x0000000000000e70       0x88 zephyr/subsys/bluetooth/controller/libsubsys__bluetooth__controller.a(mem.c.obj)
 .debug_ranges  0x0000000000000ef8       0x40 zephyr/subsys/bluetooth/controller/libsubsys__bluetooth__controller.a(memq.c.obj)
 .debug_ranges  0x0000000000000f38       0x88 zephyr/subsys/bluetooth/controller/libsubsys__bluetooth__controller.a(mayfly.c.obj)
 .debug_ranges  0x0000000000000fc0       0x10 zephyr/subsys/bluetooth/controller/libsubsys__bluetooth__controller.a(util.c.obj)
 .debug_ranges  0x0000000000000fd0      0x318 zephyr/subsys/bluetooth/controller/libsubsys__bluetooth__controller.a(ticker.c.obj)
 .debug_ranges  0x00000000000012e8       0x18 zephyr/subsys/bluetooth/controller/libsubsys__bluetooth__controller.a(ll_addr.c.obj)
 .debug_ranges  0x0000000000001300       0x18 zephyr/subsys/bluetooth/controller/libsubsys__bluetooth__controller.a(ll_tx_pwr.c.obj)
 .debug_ranges  0x0000000000001318      0xbc0 zephyr/subsys/bluetooth/controller/libsubsys__bluetooth__controller.a(ctrl.c.obj)
 .debug_ranges  0x0000000000001ed8       0x40 zephyr/subsys/bluetooth/controller/libsubsys__bluetooth__controller.a(ll.c.obj)
 .debug_ranges  0x0000000000001f18       0xb8 zephyr/subsys/bluetooth/controller/libsubsys__bluetooth__controller.a(hci_driver.c.obj)
 .debug_ranges  0x0000000000001fd0      0x230 zephyr/subsys/bluetooth/controller/libsubsys__bluetooth__controller.a(hci.c.obj)
 .debug_ranges  0x0000000000002200       0x20 zephyr/subsys/bluetooth/controller/libsubsys__bluetooth__controller.a(crypto.c.obj)
 .debug_ranges  0x0000000000002220       0x88 zephyr/subsys/bluetooth/controller/libsubsys__bluetooth__controller.a(ll_adv.c.obj)
 .debug_ranges  0x00000000000022a8       0x50 zephyr/subsys/bluetooth/controller/libsubsys__bluetooth__controller.a(ll_filter.c.obj)
 .debug_ranges  0x00000000000022f8       0x30 zephyr/subsys/bluetooth/controller/libsubsys__bluetooth__controller.a(cntr.c.obj)
 .debug_ranges  0x0000000000002328       0xc0 zephyr/subsys/bluetooth/controller/libsubsys__bluetooth__controller.a(ecb.c.obj)
 .debug_ranges  0x00000000000023e8      0x360 zephyr/subsys/bluetooth/controller/libsubsys__bluetooth__controller.a(radio.c.obj)
 .debug_ranges  0x0000000000002748       0x40 zephyr/subsys/bluetooth/controller/libsubsys__bluetooth__controller.a(mayfly.c.obj)
 .debug_ranges  0x0000000000002788       0x50 zephyr/subsys/bluetooth/controller/libsubsys__bluetooth__controller.a(ticker.c.obj)
 .debug_ranges  0x00000000000027d8      0x3f0 zephyr/subsys/net/libsubsys__net.a(buf.c.obj)
 .debug_ranges  0x0000000000002bc8      0x110 zephyr/drivers/gpio/libdrivers__gpio.a(gpio_nrf5.c.obj)
 .debug_ranges  0x0000000000002cd8       0x50 zephyr/drivers/sensor/dht/libdrivers__sensor__dht.a(dht.c.obj)
 .debug_ranges  0x0000000000002d28      0x140 zephyr/drivers/entropy/libdrivers__entropy.a(entropy_nrf5.c.obj)
 .debug_ranges  0x0000000000002e68       0x20 zephyr/kernel/libkernel.a(device.c.obj)
 .debug_ranges  0x0000000000002e88       0x10 zephyr/kernel/libkernel.a(errno.c.obj)
 .debug_ranges  0x0000000000002e98       0x98 zephyr/kernel/libkernel.a(idle.c.obj)
 .debug_ranges  0x0000000000002f30      0x1b0 zephyr/kernel/libkernel.a(init.c.obj)
 .debug_ranges  0x00000000000030e0       0x88 zephyr/kernel/libkernel.a(mempool.c.obj)
 .debug_ranges  0x0000000000003168      0x160 zephyr/kernel/libkernel.a(queue.c.obj)
 .debug_ranges  0x00000000000032c8      0x308 zephyr/kernel/libkernel.a(sched.c.obj)
 .debug_ranges  0x00000000000035d0       0x58 zephyr/kernel/libkernel.a(sem.c.obj)
 .debug_ranges  0x0000000000003628      0x238 zephyr/kernel/libkernel.a(sys_clock.c.obj)
 .debug_ranges  0x0000000000003860       0x10 zephyr/kernel/libkernel.a(system_work_q.c.obj)
 .debug_ranges  0x0000000000003870      0x200 zephyr/kernel/libkernel.a(thread.c.obj)
 .debug_ranges  0x0000000000003a70      0x148 zephyr/kernel/libkernel.a(work_q.c.obj)
 .debug_ranges  0x0000000000003bb8      0x138 zephyr/kernel/libkernel.a(poll.c.obj)
 .debug_ranges  0x0000000000003cf0       0x10 zephyr/CMakeFiles/offsets.dir/arch/arm/core/offsets/offsets.c.obj

.debug_frame    0x0000000000000000     0x4328
 .debug_frame   0x0000000000000000       0x34 libapp.a(main.c.obj)
 .debug_frame   0x0000000000000034       0x28 zephyr/libzephyr.a(soc.c.obj)
 .debug_frame   0x000000000000005c       0x28 zephyr/libzephyr.a(thread_entry.c.obj)
 .debug_frame   0x0000000000000084      0x134 zephyr/libzephyr.a(mempool.c.obj)
 .debug_frame   0x00000000000001b8      0x188 zephyr/libzephyr.a(printk.c.obj)
 .debug_frame   0x0000000000000340       0x20 zephyr/libzephyr.a(configs.c.obj)
 .debug_frame   0x0000000000000360       0x58 zephyr/libzephyr.a(system_nrf52.c.obj)
 .debug_frame   0x00000000000003b8      0x3b8 zephyr/libzephyr.a(SEGGER_RTT.c.obj)
 .debug_frame   0x0000000000000770       0x2c zephyr/libzephyr.a(rand32_entropy_device.c.obj)
 .debug_frame   0x000000000000079c       0x50 zephyr/libzephyr.a(rtt_console.c.obj)
 .debug_frame   0x00000000000007ec       0x9c zephyr/libzephyr.a(nrf5_power_clock.c.obj)
 .debug_frame   0x0000000000000888       0xb4 zephyr/libzephyr.a(nrf_rtc_timer.c.obj)
 .debug_frame   0x000000000000093c       0x20 zephyr/arch/arm/core/libarch__arm__core.a(irq_init.c.obj)
 .debug_frame   0x000000000000095c       0x20 zephyr/arch/arm/core/libarch__arm__core.a(swap.c.obj)
 .debug_frame   0x000000000000097c       0x98 zephyr/arch/arm/core/libarch__arm__core.a(fault.c.obj)
 .debug_frame   0x0000000000000a14       0x78 zephyr/arch/arm/core/libarch__arm__core.a(irq_manage.c.obj)
 .debug_frame   0x0000000000000a8c       0x30 zephyr/arch/arm/core/libarch__arm__core.a(thread.c.obj)
 .debug_frame   0x0000000000000abc       0x60 zephyr/arch/arm/core/libarch__arm__core.a(fatal.c.obj)
 .debug_frame   0x0000000000000b1c       0x2c zephyr/arch/arm/core/libarch__arm__core.a(sys_fatal_error_handler.c.obj)
 .debug_frame   0x0000000000000b48       0x34 zephyr/arch/arm/core/libarch__arm__core.a(thread_abort.c.obj)
 .debug_frame   0x0000000000000b7c       0x28 zephyr/arch/arm/core/cortex_m/libarch__arm__core__cortex_m.a(prep_c.c.obj)
 .debug_frame   0x0000000000000ba4       0x2c zephyr/arch/arm/core/cortex_m/libarch__arm__core__cortex_m.a(nmi.c.obj)
 .debug_frame   0x0000000000000bd0       0x48 zephyr/arch/arm/core/cortex_m/mpu/libarch__arm__core__cortex_m__mpu.a(arm_mpu.c.obj)
 .debug_frame   0x0000000000000c18      0x160 zephyr/lib/libc/minimal/liblib__libc__minimal.a(string.c.obj)
 .debug_frame   0x0000000000000d78       0xb8 zephyr/lib/libc/minimal/liblib__libc__minimal.a(stdout_console.c.obj)
 .debug_frame   0x0000000000000e30      0x3c4 zephyr/subsys/bluetooth/host/libsubsys__bluetooth__host.a(hci_core.c.obj)
 .debug_frame   0x00000000000011f4       0xf0 zephyr/subsys/bluetooth/controller/libsubsys__bluetooth__controller.a(mem.c.obj)
 .debug_frame   0x00000000000012e4       0x58 zephyr/subsys/bluetooth/controller/libsubsys__bluetooth__controller.a(memq.c.obj)
 .debug_frame   0x000000000000133c       0xbc zephyr/subsys/bluetooth/controller/libsubsys__bluetooth__controller.a(mayfly.c.obj)
 .debug_frame   0x00000000000013f8       0x28 zephyr/subsys/bluetooth/controller/libsubsys__bluetooth__controller.a(util.c.obj)
 .debug_frame   0x0000000000001420      0x20c zephyr/subsys/bluetooth/controller/libsubsys__bluetooth__controller.a(ticker.c.obj)
 .debug_frame   0x000000000000162c       0x44 zephyr/subsys/bluetooth/controller/libsubsys__bluetooth__controller.a(ll_addr.c.obj)
 .debug_frame   0x0000000000001670       0x30 zephyr/subsys/bluetooth/controller/libsubsys__bluetooth__controller.a(ll_tx_pwr.c.obj)
 .debug_frame   0x00000000000016a0      0xc58 zephyr/subsys/bluetooth/controller/libsubsys__bluetooth__controller.a(ctrl.c.obj)
 .debug_frame   0x00000000000022f8       0xb8 zephyr/subsys/bluetooth/controller/libsubsys__bluetooth__controller.a(ll.c.obj)
 .debug_frame   0x00000000000023b0       0x98 zephyr/subsys/bluetooth/controller/libsubsys__bluetooth__controller.a(hci_driver.c.obj)
 .debug_frame   0x0000000000002448      0x1c4 zephyr/subsys/bluetooth/controller/libsubsys__bluetooth__controller.a(hci.c.obj)
 .debug_frame   0x000000000000260c       0x60 zephyr/subsys/bluetooth/controller/libsubsys__bluetooth__controller.a(crypto.c.obj)
 .debug_frame   0x000000000000266c       0xc4 zephyr/subsys/bluetooth/controller/libsubsys__bluetooth__controller.a(ll_adv.c.obj)
 .debug_frame   0x0000000000002730       0x98 zephyr/subsys/bluetooth/controller/libsubsys__bluetooth__controller.a(ll_filter.c.obj)
 .debug_frame   0x00000000000027c8       0x60 zephyr/subsys/bluetooth/controller/libsubsys__bluetooth__controller.a(cntr.c.obj)
 .debug_frame   0x0000000000002828       0xec zephyr/subsys/bluetooth/controller/libsubsys__bluetooth__controller.a(ecb.c.obj)
 .debug_frame   0x0000000000002914      0x4e4 zephyr/subsys/bluetooth/controller/libsubsys__bluetooth__controller.a(radio.c.obj)
 .debug_frame   0x0000000000002df8       0x50 zephyr/subsys/bluetooth/controller/libsubsys__bluetooth__controller.a(mayfly.c.obj)
 .debug_frame   0x0000000000002e48       0x4c zephyr/subsys/bluetooth/controller/libsubsys__bluetooth__controller.a(ticker.c.obj)
 .debug_frame   0x0000000000002e94      0x42c zephyr/subsys/net/libsubsys__net.a(buf.c.obj)
 .debug_frame   0x00000000000032c0      0x118 zephyr/drivers/gpio/libdrivers__gpio.a(gpio_nrf5.c.obj)
 .debug_frame   0x00000000000033d8       0xa4 zephyr/drivers/sensor/dht/libdrivers__sensor__dht.a(dht.c.obj)
 .debug_frame   0x000000000000347c       0xd4 zephyr/drivers/entropy/libdrivers__entropy.a(entropy_nrf5.c.obj)
 .debug_frame   0x0000000000003550       0x68 zephyr/kernel/libkernel.a(device.c.obj)
 .debug_frame   0x00000000000035b8       0x20 zephyr/kernel/libkernel.a(errno.c.obj)
 .debug_frame   0x00000000000035d8       0x38 zephyr/kernel/libkernel.a(idle.c.obj)
 .debug_frame   0x0000000000003610       0xa8 zephyr/kernel/libkernel.a(init.c.obj)
 .debug_frame   0x00000000000036b8       0xd4 zephyr/kernel/libkernel.a(mempool.c.obj)
 .debug_frame   0x000000000000378c      0x12c zephyr/kernel/libkernel.a(queue.c.obj)
 .debug_frame   0x00000000000038b8      0x418 zephyr/kernel/libkernel.a(sched.c.obj)
 .debug_frame   0x0000000000003cd0       0x84 zephyr/kernel/libkernel.a(sem.c.obj)
 .debug_frame   0x0000000000003d54       0xc8 zephyr/kernel/libkernel.a(sys_clock.c.obj)
 .debug_frame   0x0000000000003e1c       0x28 zephyr/kernel/libkernel.a(system_work_q.c.obj)
 .debug_frame   0x0000000000003e44      0x238 zephyr/kernel/libkernel.a(thread.c.obj)
 .debug_frame   0x000000000000407c       0xc8 zephyr/kernel/libkernel.a(work_q.c.obj)
 .debug_frame   0x0000000000004144      0x100 zephyr/kernel/libkernel.a(poll.c.obj)
 .debug_frame   0x0000000000004244       0x20 zephyr/CMakeFiles/offsets.dir/arch/arm/core/offsets/offsets.c.obj
 .debug_frame   0x0000000000004264       0x44 /home/mark/cs7ns2/gcc-arm-none-eabi/bin/../lib/gcc/arm-none-eabi/7.3.1/thumb/v7e-m/libgcc.a(_aeabi_ldivmod.o)
 .debug_frame   0x00000000000042a8       0x2c /home/mark/cs7ns2/gcc-arm-none-eabi/bin/../lib/gcc/arm-none-eabi/7.3.1/thumb/v7e-m/libgcc.a(_aeabi_uldivmod.o)
 .debug_frame   0x00000000000042d4       0x20 /home/mark/cs7ns2/gcc-arm-none-eabi/bin/../lib/gcc/arm-none-eabi/7.3.1/thumb/v7e-m/libgcc.a(_popcountsi2.o)
 .debug_frame   0x00000000000042f4       0x34 /home/mark/cs7ns2/gcc-arm-none-eabi/bin/../lib/gcc/arm-none-eabi/7.3.1/thumb/v7e-m/libgcc.a(_udivmoddi4.o)
